
VolCtrl_FW.elf:     file format elf32-avr

Sections:
Idx Name          Size      VMA       LMA       File off  Algn
  0 .data         000000aa  00800100  000039b8  00003a6c  2**0
                  CONTENTS, ALLOC, LOAD, DATA
  1 .text         000039b8  00000000  00000000  000000b4  2**1
                  CONTENTS, ALLOC, LOAD, READONLY, CODE
  2 .bss          0000035a  008001aa  008001aa  00003b16  2**0
                  ALLOC
  3 .eeprom       00000234  00810000  00810000  00003b16  2**0
                  CONTENTS, ALLOC, LOAD, DATA
  4 .comment      0000005c  00000000  00000000  00003d4a  2**0
                  CONTENTS, READONLY
  5 .note.gnu.avr.deviceinfo 00000040  00000000  00000000  00003da8  2**2
                  CONTENTS, READONLY
  6 .debug_aranges 00000308  00000000  00000000  00003de8  2**3
                  CONTENTS, READONLY, DEBUGGING
  7 .debug_info   00004cfd  00000000  00000000  000040f0  2**0
                  CONTENTS, READONLY, DEBUGGING
  8 .debug_abbrev 00001637  00000000  00000000  00008ded  2**0
                  CONTENTS, READONLY, DEBUGGING
  9 .debug_line   00002935  00000000  00000000  0000a424  2**0
                  CONTENTS, READONLY, DEBUGGING
 10 .debug_frame  000006b8  00000000  00000000  0000cd5c  2**2
                  CONTENTS, READONLY, DEBUGGING
 11 .debug_str    000011df  00000000  00000000  0000d414  2**0
                  CONTENTS, READONLY, DEBUGGING
 12 .debug_loc    00002463  00000000  00000000  0000e5f3  2**0
                  CONTENTS, READONLY, DEBUGGING
 13 .debug_ranges 000002d8  00000000  00000000  00010a56  2**0
                  CONTENTS, READONLY, DEBUGGING

Disassembly of section .text:

00000000 <__vectors>:
       0:	0c 94 d6 04 	jmp	0x9ac	; 0x9ac <__ctors_end>
       4:	0c 94 f3 04 	jmp	0x9e6	; 0x9e6 <__bad_interrupt>
       8:	0c 94 f3 04 	jmp	0x9e6	; 0x9e6 <__bad_interrupt>
       c:	0c 94 f3 04 	jmp	0x9e6	; 0x9e6 <__bad_interrupt>
      10:	0c 94 f3 04 	jmp	0x9e6	; 0x9e6 <__bad_interrupt>
      14:	0c 94 f3 04 	jmp	0x9e6	; 0x9e6 <__bad_interrupt>
      18:	0c 94 f3 04 	jmp	0x9e6	; 0x9e6 <__bad_interrupt>
      1c:	0c 94 f3 04 	jmp	0x9e6	; 0x9e6 <__bad_interrupt>
      20:	0c 94 f3 04 	jmp	0x9e6	; 0x9e6 <__bad_interrupt>
      24:	0c 94 f3 04 	jmp	0x9e6	; 0x9e6 <__bad_interrupt>
      28:	0c 94 f3 04 	jmp	0x9e6	; 0x9e6 <__bad_interrupt>
      2c:	0c 94 77 14 	jmp	0x28ee	; 0x28ee <__vector_11>
      30:	0c 94 f3 04 	jmp	0x9e6	; 0x9e6 <__bad_interrupt>
      34:	0c 94 f3 04 	jmp	0x9e6	; 0x9e6 <__bad_interrupt>
      38:	0c 94 f3 04 	jmp	0x9e6	; 0x9e6 <__bad_interrupt>
      3c:	0c 94 f3 04 	jmp	0x9e6	; 0x9e6 <__bad_interrupt>
      40:	0c 94 f3 04 	jmp	0x9e6	; 0x9e6 <__bad_interrupt>
      44:	0c 94 f3 04 	jmp	0x9e6	; 0x9e6 <__bad_interrupt>
      48:	0c 94 44 15 	jmp	0x2a88	; 0x2a88 <__vector_18>
      4c:	0c 94 79 15 	jmp	0x2af2	; 0x2af2 <__vector_19>
      50:	0c 94 f3 04 	jmp	0x9e6	; 0x9e6 <__bad_interrupt>
      54:	0c 94 a8 14 	jmp	0x2950	; 0x2950 <__vector_21>
      58:	0c 94 f3 04 	jmp	0x9e6	; 0x9e6 <__bad_interrupt>
      5c:	0c 94 f3 04 	jmp	0x9e6	; 0x9e6 <__bad_interrupt>
      60:	0c 94 f3 04 	jmp	0x9e6	; 0x9e6 <__bad_interrupt>
      64:	0c 94 f3 04 	jmp	0x9e6	; 0x9e6 <__bad_interrupt>
      68:	0c 94 f3 04 	jmp	0x9e6	; 0x9e6 <__bad_interrupt>
      6c:	0c 94 f3 04 	jmp	0x9e6	; 0x9e6 <__bad_interrupt>
      70:	0c 94 f3 04 	jmp	0x9e6	; 0x9e6 <__bad_interrupt>
      74:	0c 94 f3 04 	jmp	0x9e6	; 0x9e6 <__bad_interrupt>
      78:	0c 94 f3 04 	jmp	0x9e6	; 0x9e6 <__bad_interrupt>
      7c:	0c 94 f3 04 	jmp	0x9e6	; 0x9e6 <__bad_interrupt>
      80:	0c 94 f3 04 	jmp	0x9e6	; 0x9e6 <__bad_interrupt>
      84:	0c 94 53 14 	jmp	0x28a6	; 0x28a6 <__vector_33>
      88:	0c 94 f3 04 	jmp	0x9e6	; 0x9e6 <__bad_interrupt>
      8c:	0c 94 f3 04 	jmp	0x9e6	; 0x9e6 <__bad_interrupt>
      90:	0c 94 f3 04 	jmp	0x9e6	; 0x9e6 <__bad_interrupt>
      94:	0c 94 f3 04 	jmp	0x9e6	; 0x9e6 <__bad_interrupt>
      98:	0c 94 f3 04 	jmp	0x9e6	; 0x9e6 <__bad_interrupt>
      9c:	0c 94 f3 04 	jmp	0x9e6	; 0x9e6 <__bad_interrupt>
      a0:	0c 94 f3 04 	jmp	0x9e6	; 0x9e6 <__bad_interrupt>
      a4:	0c 94 f3 04 	jmp	0x9e6	; 0x9e6 <__bad_interrupt>
      a8:	0c 94 f3 04 	jmp	0x9e6	; 0x9e6 <__bad_interrupt>
      ac:	0c 94 f3 04 	jmp	0x9e6	; 0x9e6 <__bad_interrupt>
      b0:	0c 94 f3 04 	jmp	0x9e6	; 0x9e6 <__bad_interrupt>
      b4:	2c 0d       	add	r18, r12
      b6:	86 0d       	add	r24, r6
      b8:	b4 0d       	add	r27, r4
      ba:	20 0e       	add	r2, r16
      bc:	42 0e       	add	r4, r18
      be:	e2 0d       	add	r30, r2
      c0:	01 0e       	add	r0, r17

000000c2 <__trampolines_end>:
      c2:	6d 73       	andi	r22, 0x3D	; 61
      c4:	0d 0a       	sbc	r0, r29
	...

000000c7 <__c.2827>:
      c7:	49 4e 43 5f 44 55 52 41 54 49 4f 4e 20 56 41 4c     INC_DURATION VAL
      d7:	55 45 20 3d 20 00                                   UE = .

000000dd <__c.2824>:
      dd:	45 52 52 4f 52 3a 20 49 4e 43 5f 44 55 52 20 45     ERROR: INC_DUR E
      ed:	45 50 52 4f 4d 20 52 41 4d 20 4d 49 53 53 4d 41     EPROM RAM MISSMA
      fd:	54 43 48 21 0d 0a 00                                TCH!...

00000104 <__c.2822>:
     104:	49 6e 76 61 6c 69 64 20 41 72 67 75 6d 65 6e 74     Invalid Argument
     114:	20 63 6f 75 6e 74 21 0d 0a 00                        count!...

0000011e <__c.2816>:
     11e:	49 4e 43 5f 44 55 52 41 54 49 4f 4e 20 76 61 6c     INC_DURATION val
     12e:	75 65 20 75 70 64 61 74 65 64 0d 0a 00              ue updated...

0000013b <__c.2814>:
     13b:	41 72 67 75 6d 65 6e 74 20 6f 75 74 20 6f 66 20     Argument out of 
     14b:	72 61 6e 67 65 21 0d 0a 00                          range!...

00000154 <__c.2811>:
     154:	49 6e 76 61 6c 69 64 20 41 72 67 75 6d 65 6e 74     Invalid Argument
     164:	20 63 6f 75 6e 74 21 0d 0a 00                        count!...

0000016e <__c.2805>:
     16e:	49 6e 76 61 6c 69 64 20 41 72 67 75 6d 65 6e 74     Invalid Argument
     17e:	20 0d 0a 00                                          ...

00000182 <__c.2803>:
     182:	33 56 33 20 4c 45 44 20 4f 46 46 21 0d 0a 00        3V3 LED OFF!...

00000191 <__c.2801>:
     191:	33 56 33 20 4c 45 44 20 4f 4e 21 0d 0a 00           3V3 LED ON!...

0000019f <__c.2799>:
     19f:	49 6e 76 61 6c 69 64 20 41 72 67 75 6d 65 6e 74     Invalid Argument
     1af:	20 63 6f 75 6e 74 21 0d 0a 00                        count!...

000001b9 <__c.2793>:
     1b9:	49 6e 76 61 6c 69 64 20 41 72 67 75 6d 65 6e 74     Invalid Argument
     1c9:	20 0d 0a 00                                          ...

000001cd <__c.2791>:
     1cd:	35 56 20 4c 45 44 20 4f 46 46 21 0d 0a 00           5V LED OFF!...

000001db <__c.2789>:
     1db:	35 56 20 4c 45 44 20 4f 4e 21 0d 0a 00              5V LED ON!...

000001e8 <__c.2787>:
     1e8:	49 6e 76 61 6c 69 64 20 41 72 67 75 6d 65 6e 74     Invalid Argument
     1f8:	20 63 6f 75 6e 74 21 0d 0a 00                        count!...

00000202 <__c.2778>:
     202:	0d 0a 00                                            ...

00000205 <__c.2768>:
     205:	20 30 78 00                                          0x.

00000209 <__c.2762>:
     209:	20 30 78 00                                          0x.

0000020d <__c.2741>:
     20d:	20 49 44 58 20 7c 20 50 52 4f 54 4f 43 4f 4c 20      IDX | PROTOCOL 
     21d:	7c 20 49 52 5f 41 44 44 52 20 7c 20 49 52 5f 43     | IR_ADDR | IR_C
     22d:	4d 44 20 20 7c 20 43 4d 44 20 20 20 20 20 20 20     MD  | CMD       
     23d:	20 20 20 7c 20 44 45 53 43 52 49 50 54 49 4f 4e        | DESCRIPTION
     24d:	0d 0a 00                                            ...

00000250 <__c.2739>:
     250:	49 6e 76 61 6c 69 64 20 41 72 67 75 6d 65 6e 74     Invalid Argument
     260:	20 63 6f 75 6e 74 21 0d 0a 00                        count!...

0000026a <__c.2733>:
     26a:	44 65 6c 65 74 65 64 21 0d 0a 00                    Deleted!...

00000275 <__c.2727>:
     275:	49 6e 64 65 78 20 6f 75 74 20 6f 66 20 72 61 6e     Index out of ran
     285:	67 65 21 0d 0a 00                                   ge!...

0000028b <__c.2723>:
     28b:	0d 0a 00                                            ...

0000028e <__c.2721>:
     28e:	44 65 6c 65 74 65 20 4b 65 79 20 77 69 74 68 20     Delete Key with 
     29e:	69 6e 64 65 78 3a 20 00                             index: .

000002a6 <__c.2719>:
     2a6:	4e 6f 20 72 65 6d 6f 74 65 20 6b 65 79 20 72 65     No remote key re
     2b6:	67 69 73 74 65 72 65 64 2e 20 4e 6f 74 68 69 6e     gistered. Nothin
     2c6:	67 20 74 6f 20 64 65 6c 65 74 65 21 0d 0a 00        g to delete!...

000002d5 <__c.2717>:
     2d5:	49 6e 76 61 6c 69 64 20 41 72 67 75 6d 65 6e 74     Invalid Argument
     2e5:	20 63 6f 75 6e 74 21 0d 0a 00                        count!...

000002ef <__c.2711>:
     2ef:	4b 65 79 20 72 65 67 69 73 74 65 72 20 73 75 63     Key register suc
     2ff:	63 65 73 73 66 75 6c 21 0d 0a 00                    cessful!...

0000030a <__c.2709>:
     30a:	57 72 69 74 65 20 74 6f 20 45 45 50 52 4f 4d 2e     Write to EEPROM.
     31a:	2e 2e 0d 0a 00                                      .....

0000031f <__c.2707>:
     31f:	4b 65 79 70 72 65 73 73 20 72 65 67 69 73 74 65     Keypress registe
     32f:	72 65 64 0d 0a 00                                   red...

00000335 <__c.2705>:
     335:	0d 0a 00                                            ...

00000338 <__c.2700>:
     338:	0d 0a 54 69 6d 65 6f 75 74 21 0d 0a 00              ..Timeout!...

00000345 <__c.2698>:
     345:	50 72 65 73 73 20 74 68 65 20 64 65 73 69 72 65     Press the desire
     355:	64 20 6b 65 79 20 6f 6e 20 74 68 65 20 69 72 2d     d key on the ir-
     365:	72 65 6d 6f 74 65 0d 0a 00                          remote...

0000036e <__c.2692>:
     36e:	72 65 67 72 65 6d 3a 20 49 6e 76 61 6c 69 64 20     regrem: Invalid 
     37e:	6e 75 6d 62 65 72 20 6f 66 20 61 72 67 75 6d 65     number of argume
     38e:	6e 74 73 20 66 6f 72 20 63 6d 64 20 74 6f 20 72     nts for cmd to r
     39e:	65 67 69 73 74 65 72 0d 0a 00                       egister...

000003a8 <__c.2690>:
     3a8:	72 65 67 72 65 6d 3a 20 59 6f 75 20 74 72 69 65     regrem: You trie
     3b8:	64 20 74 6f 20 72 65 67 69 73 74 65 72 20 61 20     d to register a 
     3c8:	75 6e 6b 6e 6f 77 6e 20 63 6f 6d 6d 61 6e 64 0d     unknown command.
     3d8:	0a 00                                               ..

000003da <__c.2684>:
     3da:	54 68 65 20 6d 61 78 69 6d 75 6d 20 6e 75 6d 65     The maximum nume
     3ea:	72 20 6f 66 20 6b 65 79 73 20 74 6f 20 72 65 67     r of keys to reg
     3fa:	69 73 74 65 72 20 69 73 20 72 65 61 63 68 65 64     ister is reached
     40a:	21 0d 0a 00                                         !...

0000040e <__c.2665>:
     40e:	41 72 67 75 6d 65 6e 74 20 6f 75 74 20 6f 66 20     Argument out of 
     41e:	72 61 6e 67 65 21 0d 0a 00                          range!...

00000427 <__c.2662>:
     427:	73 65 74 76 6f 6c 0d 0a 00                          setvol...

00000430 <__c.2660>:
     430:	49 6e 76 61 6c 69 64 20 41 72 67 75 6d 65 6e 74     Invalid Argument
     440:	20 63 6f 75 6e 74 21 0d 0a 00                        count!...

0000044a <__c.2654>:
     44a:	76 6f 6c 64 6f 77 6e 0d 0a 00                       voldown...

00000454 <__c.2652>:
     454:	76 6f 6c 64 6f 77 6e 20 64 6f 65 73 20 6e 6f 74     voldown does not
     464:	20 65 78 70 65 63 74 20 61 20 61 72 67 75 6d 65      expect a argume
     474:	6e 74 21 0d 0a 00                                   nt!...

0000047a <__c.2646>:
     47a:	76 6f 6c 75 70 0d 0a 00                             volup...

00000482 <__c.2644>:
     482:	56 6f 6c 75 70 20 64 6f 65 73 20 6e 6f 74 20 65     Volup does not e
     492:	78 70 65 63 74 20 61 20 61 72 67 75 6d 65 6e 74     xpect a argument
     4a2:	21 0d 0a 00                                         !...

000004a6 <__c.2596>:
     4a6:	0d 0a 00                                            ...

000004a9 <__c.2589>:
     4a9:	41 44 43 20 56 61 6c 75 65 3a 20 00                 ADC Value: .

000004b5 <poti_log_curve>:
     4b5:	0a 00 0a 00 0b 00 0b 00 0b 00 0b 00 0c 00 0d 00     ................
     4c5:	0d 00 0e 00 0f 00 10 00 11 00 13 00 15 00 16 00     ................
     4d5:	18 00 19 00 19 00 1a 00 1c 00 1d 00 1e 00 1f 00     ................
     4e5:	25 00 2a 00 30 00 35 00 3b 00 40 00 45 00 4a 00     %.*.0.5.;.@.E.J.
     4f5:	4f 00 54 00 5a 00 60 00 66 00 6c 00 72 00 77 00     O.T.Z.`.f.l.r.w.
     505:	7d 00 83 00 88 00 8e 00 93 00 98 00 9c 00 a1 00     }...............
     515:	a6 00 ab 00 b0 00 b4 00 b9 00 bf 00 c4 00 c9 00     ................
     525:	cf 00 d5 00 dc 00 e2 00 e8 00 ed 00 f2 00 f8 00     ................
     535:	00 01 0b 01 17 01 24 01 34 01 45 01 55 01 69 01     ......$.4.E.U.i.
     545:	7f 01 97 01 b6 01 d5 01 f4 01 13 02 31 02 50 02     ............1.P.
     555:	6e 02 8d 02 ab 02 c9 02 e7 02 05 03 23 03 40 03     n...........#.@.
     565:	5d 03 7a 03 97 03 b3 03 ce 03 e4 03 f1 03 f8 03     ].z.............
     575:	fc 03 fe 03 ff 03 ff 03 ff 03                       ..........

0000057f <__c.2633>:
     57f:	55 41 52 54 5f 4e 4f 5f 44 41 54 41 20 6f 63 63     UART_NO_DATA occ
     58f:	75 72 72 65 64 21 00                                urred!.

00000596 <__c.2631>:
     596:	55 41 52 54 5f 42 55 46 46 45 52 5f 4f 56 45 52     UART_BUFFER_OVER
     5a6:	46 4c 4f 57 20 6f 63 63 75 72 72 65 64 21 00        FLOW occurred!.

000005b5 <__c.2629>:
     5b5:	55 41 52 54 5f 4f 56 45 52 52 55 4e 5f 45 52 52     UART_OVERRUN_ERR
     5c5:	4f 52 20 6f 63 63 75 72 72 65 64 21 00              OR occurred!.

000005d2 <__c.2627>:
     5d2:	55 41 52 54 5f 46 52 41 4d 45 5f 45 52 52 4f 52     UART_FRAME_ERROR
     5e2:	20 6f 63 63 75 72 72 65 64 21 00                     occurred!.

000005ed <__c.2607>:
     5ed:	4c 69 6e 65 20 6c 65 6e 67 74 68 20 65 78 63 65     Line length exce
     5fd:	65 64 73 20 62 75 66 66 65 72 21 00                 eds buffer!.

00000609 <__c.2595>:
     609:	52 65 71 75 69 72 65 64 20 61 72 67 75 6d 65 6e     Required argumen
     619:	74 73 20 6e 6f 74 20 70 72 65 73 65 6e 74 21 0d     ts not present!.
     629:	0a 00                                               ..

0000062b <__c.2591>:
     62b:	4d 65 6d 6f 72 79 20 61 6c 6c 6f 63 61 74 69 6f     Memory allocatio
     63b:	6e 20 66 61 69 6c 65 64 21 0d 0a 00                 n failed!...

00000647 <__c.2589>:
     647:	4d 61 78 20 61 72 67 2e 20 73 74 72 69 6e 67 20     Max arg. string 
     657:	6c 65 6e 67 74 68 20 65 78 63 65 65 64 65 64 21     length exceeded!
     667:	0d 0a 00                                            ...

0000066a <__c.2586>:
     66a:	54 68 65 20 6e 75 6d 62 65 72 20 6f 66 20 61 72     The number of ar
     67a:	67 75 6d 65 6e 74 73 20 65 78 63 65 65 64 73 20     guments exceeds 
     68a:	74 68 65 20 73 70 65 63 69 66 69 65 64 20 70 61     the specified pa
     69a:	72 73 65 72 20 6c 69 6d 69 74 21 0d 0a 00           rser limit!...

000006a8 <__c.2584>:
     6a8:	55 6e 6b 6e 6f 77 6e 20 63 6f 6d 6d 61 6e 64 21     Unknown command!
     6b8:	0d 0a 00                                            ...

000006bb <__c.2637>:
     6bb:	56 6f 6c 75 6d 65 20 73 65 61 72 63 68 20 65 72     Volume search er
     6cb:	72 6f 72 21 0d 0a 00                                ror!...

000006d2 <__c.2633>:
     6d2:	4d 6f 74 6f 72 20 40 20 6c 6f 77 65 72 20 6c 69     Motor @ lower li
     6e2:	6d 2e 21 0d 0a 00                                   m.!...

000006e8 <__c.2630>:
     6e8:	4d 6f 74 6f 72 20 40 20 75 70 70 65 72 20 6c 69     Motor @ upper li
     6f8:	6d 2e 21 0d 0a 00                                   m.!...

000006fe <__c.2627>:
     6fe:	4d 6f 74 6f 72 20 40 20 6c 6f 77 65 72 20 6c 69     Motor @ lower li
     70e:	6d 2e 21 0d 0a 00                                   m.!...

00000714 <__c.2624>:
     714:	4d 6f 74 6f 72 20 40 20 75 70 70 65 72 20 6c 69     Motor @ upper li
     724:	6d 2e 21 0d 0a 00                                   m.!...

0000072a <rcii_param>:
     72a:	36 06 09 06 09 06 09 06 09 00 00 00 0a 0a 00 00     6...............
     73a:	03                                                  .

0000073b <rc5_param>:
     73b:	07 0b 10 0b 10 00 00 00 00 01 07 07 0d 0d 00 00     ................
     74b:	01                                                  .

0000074c <kaseikyo_param>:
     74c:	05 03 0a 0e 18 03 0a 04 09 00 10 1c 28 30 01 01     ............(0..
	...

0000075d <samsung_param>:
     75d:	03 05 0c 0f 1e 05 0c 04 0b 00 10 15 25 25 01 01     ............%%..
	...

0000076e <nec_rep_param>:
     76e:	02 05 0c 11 22 05 0c 05 0c 00 00 00 00 00 01 01     ...."...........
	...

0000077f <nec_param>:
     77f:	02 05 0c 11 22 05 0c 05 0c 00 10 10 20 20 01 01     ....".......  ..
	...

00000790 <sircs_param>:
     790:	01 0f 15 07 0b 07 0b 07 0b 0f 14 00 0f 14 00 01     ................
	...

000007a1 <irmp_protocol_names>:
     7a1:	8a 09 84 09 80 09 78 09 70 09 67 09 60 09 5c 09     ......x.p.g.`.\.
     7b1:	56 09 52 09 4a 09 44 09 3b 09 34 09 2b 09 23 09     V.R.J.D.;.4.+.#.
     7c1:	1d 09 15 09 11 09 0b 09 07 09 02 09 fc 08 f5 08     ................
     7d1:	f0 08 e7 08 e0 08 da 08 d4 08 cf 08 c7 08 c2 08     ................
     7e1:	ba 08 b4 08 a9 08 a2 08 9b 08 94 08 8d 08 85 08     ................
     7f1:	7f 08 77 08 70 08 69 08 65 08 60 08 5a 08 51 08     ..w.p.i.e.`.Z.Q.
     801:	47 08 3b 08 33 08 29 08 22 08 1d 08 18 08 11 08     G.;.3.).".......

00000811 <proto_radio1>:
     811:	52 41 44 49 4f 31 00                                RADIO1.

00000818 <proto_rcii>:
     818:	52 43 49 49 00                                      RCII.

0000081d <proto_gree>:
     81d:	47 52 45 45 00                                      GREE.

00000822 <proto_irmp16>:
     822:	49 52 4d 50 31 36 00                                IRMP16.

00000829 <proto_samsungah>:
     829:	53 41 4d 53 55 4e 47 41 48 00                       SAMSUNGAH.

00000833 <proto_vincent>:
     833:	56 49 4e 43 45 4e 54 00                             VINCENT.

0000083b <proto_mitsu_heavy>:
     83b:	4d 49 54 53 55 5f 48 45 41 56 59 00                 MITSU_HEAVY.

00000847 <proto_panasonic>:
     847:	50 41 4e 41 53 4f 4e 49 43 00                       PANASONIC.

00000851 <proto_technics>:
     851:	54 45 43 48 4e 49 43 53 00                          TECHNICS.

0000085a <proto_acp24>:
     85a:	41 43 50 32 34 00                                   ACP24.

00000860 <proto_s100>:
     860:	53 31 30 30 00                                      S100.

00000865 <proto_fan>:
     865:	46 41 4e 00                                         FAN.

00000869 <proto_pentax>:
     869:	50 45 4e 54 41 58 00                                PENTAX.

00000870 <proto_merlin>:
     870:	4d 45 52 4c 49 4e 00                                MERLIN.

00000877 <proto_samsung48>:
     877:	53 41 4d 53 47 34 38 00                             SAMSG48.

0000087f <proto_lgair>:
     87f:	4c 47 41 49 52 00                                   LGAIR.

00000885 <proto_speaker>:
     885:	53 50 45 41 4b 45 52 00                             SPEAKER.

0000088d <proto_rcmm12>:
     88d:	52 43 4d 4d 31 32 00                                RCMM12.

00000894 <proto_rcmm24>:
     894:	52 43 4d 4d 32 34 00                                RCMM24.

0000089b <proto_rcmm32>:
     89b:	52 43 4d 4d 33 32 00                                RCMM32.

000008a2 <proto_roomba>:
     8a2:	52 4f 4f 4d 42 41 00                                ROOMBA.

000008a9 <proto_telefunken>:
     8a9:	54 45 4c 45 46 55 4e 4b 45 4e 00                    TELEFUNKEN.

000008b4 <proto_ortek>:
     8b4:	4f 52 54 45 4b 00                                   ORTEK.

000008ba <proto_a1tvbox>:
     8ba:	41 31 54 56 42 4f 58 00                             A1TVBOX.

000008c2 <proto_bose>:
     8c2:	42 4f 53 45 00                                      BOSE.

000008c7 <proto_thomson>:
     8c7:	54 48 4f 4d 53 4f 4e 00                             THOMSON.

000008cf <proto_lego>:
     8cf:	4c 45 47 4f 00                                      LEGO.

000008d4 <proto_nec42>:
     8d4:	4e 45 43 34 32 00                                   NEC42.

000008da <proto_nec16>:
     8da:	4e 45 43 31 36 00                                   NEC16.

000008e0 <proto_netbox>:
     8e0:	4e 45 54 42 4f 58 00                                NETBOX.

000008e7 <proto_kathrein>:
     8e7:	4b 41 54 48 52 45 49 4e 00                          KATHREIN.

000008f0 <proto_ir60>:
     8f0:	49 52 36 30 00                                      IR60.

000008f5 <proto_ruwido>:
     8f5:	52 55 57 49 44 4f 00                                RUWIDO.

000008fc <proto_nikon>:
     8fc:	4e 49 4b 4f 4e 00                                   NIKON.

00000902 <proto_rc6a>:
     902:	52 43 36 41 00                                      RC6A.

00000907 <proto_jvc>:
     907:	4a 56 43 00                                         JVC.

0000090b <proto_rccar>:
     90b:	52 43 43 41 52 00                                   RCCAR.

00000911 <proto_fdc>:
     911:	46 44 43 00                                         FDC.

00000915 <proto_siemens>:
     915:	53 49 45 4d 45 4e 53 00                             SIEMENS.

0000091d <proto_nokia>:
     91d:	4e 4f 4b 49 41 00                                   NOKIA.

00000923 <proto_grundig>:
     923:	47 52 55 4e 44 49 47 00                             GRUNDIG.

0000092b <proto_bang_olufsen>:
     92b:	42 41 4e 47 20 4f 4c 55 00                          BANG OLU.

00000934 <proto_nubert>:
     934:	4e 55 42 45 52 54 00                                NUBERT.

0000093b <proto_recs80ext>:
     93b:	52 45 43 53 38 30 45 58 00                          RECS80EX.

00000944 <proto_apple>:
     944:	41 50 50 4c 45 00                                   APPLE.

0000094a <proto_samsung32>:
     94a:	53 41 4d 53 47 33 32 00                             SAMSG32.

00000952 <proto_rc6>:
     952:	52 43 36 00                                         RC6.

00000956 <proto_denon>:
     956:	44 45 4e 4f 4e 00                                   DENON.

0000095c <proto_rc5>:
     95c:	52 43 35 00                                         RC5.

00000960 <proto_recs80>:
     960:	52 45 43 53 38 30 00                                RECS80.

00000967 <proto_kaseikyo>:
     967:	4b 41 53 45 49 4b 59 4f 00                          KASEIKYO.

00000970 <proto_matsushita>:
     970:	4d 41 54 53 55 53 48 00                             MATSUSH.

00000978 <proto_samsung>:
     978:	53 41 4d 53 55 4e 47 00                             SAMSUNG.

00000980 <proto_nec>:
     980:	4e 45 43 00                                         NEC.

00000984 <proto_sircs>:
     984:	53 49 52 43 53 00                                   SIRCS.

0000098a <proto_unknown>:
     98a:	55 4e 4b 4e 4f 57 4e 00                             UNKNOWN.

00000992 <__c.2448>:
     992:	0d 0a 00                                            ...

00000995 <__c.2446>:
     995:	76 31 2e 30 00                                      v1.0.

0000099a <__c.2444>:
     99a:	42 43 32 20 56 6f 6c 43 74 72 6c 20 46 57 3a 20     BC2 VolCtrl FW: 
	...

000009ac <__ctors_end>:
     9ac:	11 24       	eor	r1, r1
     9ae:	1f be       	out	0x3f, r1	; 63
     9b0:	cf ef       	ldi	r28, 0xFF	; 255
     9b2:	d8 e0       	ldi	r29, 0x08	; 8
     9b4:	de bf       	out	0x3e, r29	; 62
     9b6:	cd bf       	out	0x3d, r28	; 61

000009b8 <__do_copy_data>:
     9b8:	11 e0       	ldi	r17, 0x01	; 1
     9ba:	a0 e0       	ldi	r26, 0x00	; 0
     9bc:	b1 e0       	ldi	r27, 0x01	; 1
     9be:	e8 eb       	ldi	r30, 0xB8	; 184
     9c0:	f9 e3       	ldi	r31, 0x39	; 57
     9c2:	02 c0       	rjmp	.+4      	; 0x9c8 <__do_copy_data+0x10>
     9c4:	05 90       	lpm	r0, Z+
     9c6:	0d 92       	st	X+, r0
     9c8:	aa 3a       	cpi	r26, 0xAA	; 170
     9ca:	b1 07       	cpc	r27, r17
     9cc:	d9 f7       	brne	.-10     	; 0x9c4 <__do_copy_data+0xc>

000009ce <__do_clear_bss>:
     9ce:	25 e0       	ldi	r18, 0x05	; 5
     9d0:	aa ea       	ldi	r26, 0xAA	; 170
     9d2:	b1 e0       	ldi	r27, 0x01	; 1
     9d4:	01 c0       	rjmp	.+2      	; 0x9d8 <.do_clear_bss_start>

000009d6 <.do_clear_bss_loop>:
     9d6:	1d 92       	st	X+, r1

000009d8 <.do_clear_bss_start>:
     9d8:	a4 30       	cpi	r26, 0x04	; 4
     9da:	b2 07       	cpc	r27, r18
     9dc:	e1 f7       	brne	.-8      	; 0x9d6 <.do_clear_bss_loop>
     9de:	0e 94 be 14 	call	0x297c	; 0x297c <main>
     9e2:	0c 94 da 1c 	jmp	0x39b4	; 0x39b4 <_exit>

000009e6 <__bad_interrupt>:
     9e6:	0c 94 00 00 	jmp	0	; 0x0 <__vectors>

000009ea <itoh>:
		622,  653,  683,  713,  743,  773,  803,  832,  861,  890,
		919,  947,  974,  996,  1009, 1016, 1020, 1022, 1023, 1023, 1023};

//Converts a integer to a hexadecimal string representation
char * itoh (char * buf, uint8_t digits, uint16_t number)
{
     9ea:	cf 93       	push	r28
     9ec:	df 93       	push	r29
     9ee:	ec 01       	movw	r28, r24
	for (buf[digits] = 0; digits--; number >>= 4)
     9f0:	fc 01       	movw	r30, r24
     9f2:	e6 0f       	add	r30, r22
     9f4:	f1 1d       	adc	r31, r1
     9f6:	10 82       	st	Z, r1
     9f8:	9f ef       	ldi	r25, 0xFF	; 255
     9fa:	96 0f       	add	r25, r22
     9fc:	66 23       	and	r22, r22
     9fe:	91 f0       	breq	.+36     	; 0xa24 <itoh+0x3a>
	{
		buf[digits] = "0123456789ABCDEF"[number & 0x0F];
     a00:	de 01       	movw	r26, r28
     a02:	a9 0f       	add	r26, r25
     a04:	b1 1d       	adc	r27, r1
     a06:	fa 01       	movw	r30, r20
     a08:	ef 70       	andi	r30, 0x0F	; 15
     a0a:	ff 27       	eor	r31, r31
     a0c:	e7 56       	subi	r30, 0x67	; 103
     a0e:	fe 4f       	sbci	r31, 0xFE	; 254
     a10:	20 81       	ld	r18, Z
     a12:	2c 93       	st	X, r18
		919,  947,  974,  996,  1009, 1016, 1020, 1022, 1023, 1023, 1023};

//Converts a integer to a hexadecimal string representation
char * itoh (char * buf, uint8_t digits, uint16_t number)
{
	for (buf[digits] = 0; digits--; number >>= 4)
     a14:	52 95       	swap	r21
     a16:	42 95       	swap	r20
     a18:	4f 70       	andi	r20, 0x0F	; 15
     a1a:	45 27       	eor	r20, r21
     a1c:	5f 70       	andi	r21, 0x0F	; 15
     a1e:	45 27       	eor	r20, r21
     a20:	91 50       	subi	r25, 0x01	; 1
     a22:	70 f7       	brcc	.-36     	; 0xa00 <itoh+0x16>
	{
		buf[digits] = "0123456789ABCDEF"[number & 0x0F];
	}
	return buf;
}
     a24:	ce 01       	movw	r24, r28
     a26:	df 91       	pop	r29
     a28:	cf 91       	pop	r28
     a2a:	08 95       	ret

00000a2c <getadcval>:

//Gets the current adc read value and prints the result to uart0
void getadcval(uint8_t argc, char *argv[]){
     a2c:	cf 93       	push	r28
     a2e:	df 93       	push	r29
     a30:	cd b7       	in	r28, 0x3d	; 61
     a32:	de b7       	in	r29, 0x3e	; 62
     a34:	2b 97       	sbiw	r28, 0x0b	; 11
     a36:	0f b6       	in	r0, 0x3f	; 63
     a38:	f8 94       	cli
     a3a:	de bf       	out	0x3e, r29	; 62
     a3c:	0f be       	out	0x3f, r0	; 63
     a3e:	cd bf       	out	0x3d, r28	; 61
	
	char buf[11];

	uart0_puts_p(PSTR("ADC Value: "));
     a40:	89 ea       	ldi	r24, 0xA9	; 169
     a42:	94 e0       	ldi	r25, 0x04	; 4
     a44:	0e 94 08 16 	call	0x2c10	; 0x2c10 <uart0_puts_p>
    return 1;
}

static __inline__ uint8_t __iCliRetVal(void)
{
    cli();
     a48:	f8 94       	cli

	ATOMIC_BLOCK(ATOMIC_FORCEON){
		  uart0_puts(itoa(adc_val, buf, 10));
     a4a:	80 91 1a 02 	lds	r24, 0x021A	; 0x80021a <adc_val>
     a4e:	90 91 1b 02 	lds	r25, 0x021B	; 0x80021b <adc_val+0x1>
    } else if (__radix < 2 || __radix > 36) {
	*__s = 0;
	return __s;
    } else {
	extern char *__itoa_ncheck (int, char *, unsigned char);
	return __itoa_ncheck (__val, __s, __radix);
     a52:	4a e0       	ldi	r20, 0x0A	; 10
     a54:	be 01       	movw	r22, r28
     a56:	6f 5f       	subi	r22, 0xFF	; 255
     a58:	7f 4f       	sbci	r23, 0xFF	; 255
     a5a:	0e 94 77 19 	call	0x32ee	; 0x32ee <__itoa_ncheck>
     a5e:	0e 94 f9 15 	call	0x2bf2	; 0x2bf2 <uart0_puts>
    return 1;
}

static __inline__ void __iSeiParam(const uint8_t *__s)
{
    sei();
     a62:	78 94       	sei
	}
	uart0_puts_p(PSTR("\r\n"));
     a64:	86 ea       	ldi	r24, 0xA6	; 166
     a66:	94 e0       	ldi	r25, 0x04	; 4
     a68:	0e 94 08 16 	call	0x2c10	; 0x2c10 <uart0_puts_p>
}
     a6c:	2b 96       	adiw	r28, 0x0b	; 11
     a6e:	0f b6       	in	r0, 0x3f	; 63
     a70:	f8 94       	cli
     a72:	de bf       	out	0x3e, r29	; 62
     a74:	0f be       	out	0x3f, r0	; 63
     a76:	cd bf       	out	0x3d, r28	; 61
     a78:	df 91       	pop	r29
     a7a:	cf 91       	pop	r28
     a7c:	08 95       	ret

00000a7e <inc_timer_start>:

//Start the increment timer
void inc_timer_start (void){
	if (inc_timer_stat == FALSE){
     a7e:	80 91 1d 02 	lds	r24, 0x021D	; 0x80021d <inc_timer_stat>
     a82:	81 11       	cpse	r24, r1
     a84:	0c c0       	rjmp	.+24     	; 0xa9e <inc_timer_start+0x20>
		//Reset Timer count register
		TCNT3 = 0;
     a86:	10 92 95 00 	sts	0x0095, r1	; 0x800095 <__TEXT_REGION_LENGTH__+0x7e0095>
     a8a:	10 92 94 00 	sts	0x0094, r1	; 0x800094 <__TEXT_REGION_LENGTH__+0x7e0094>
		
		//Set the prescaler value to start the counter
		TCCR3B |= TIMER3_PRESCALER_VAL;
     a8e:	e1 e9       	ldi	r30, 0x91	; 145
     a90:	f0 e0       	ldi	r31, 0x00	; 0
     a92:	80 81       	ld	r24, Z
     a94:	84 60       	ori	r24, 0x04	; 4
     a96:	80 83       	st	Z, r24
		
		//Set timer status flag
		inc_timer_stat = TRUE;
     a98:	81 e0       	ldi	r24, 0x01	; 1
     a9a:	80 93 1d 02 	sts	0x021D, r24	; 0x80021d <inc_timer_stat>
     a9e:	08 95       	ret

00000aa0 <inc_timer_stop>:
}

//Stops the increment timer
void inc_timer_stop (void){
	//clear the prescaler value to stop the counter
	TCCR3B &= ~TIMER3_PRESCALER_VAL;
     aa0:	e1 e9       	ldi	r30, 0x91	; 145
     aa2:	f0 e0       	ldi	r31, 0x00	; 0
     aa4:	80 81       	ld	r24, Z
     aa6:	8b 7f       	andi	r24, 0xFB	; 251
     aa8:	80 83       	st	Z, r24
	inc_timer_stat = FALSE;
     aaa:	10 92 1d 02 	sts	0x021D, r1	; 0x80021d <inc_timer_stat>
     aae:	08 95       	ret

00000ab0 <inc_timer_rst>:
}

//Resets the increment timer to zero value (re-trigger)
void inc_timer_rst (void){
	//Reset Timer count register
	TCNT3 = 0;
     ab0:	10 92 95 00 	sts	0x0095, r1	; 0x800095 <__TEXT_REGION_LENGTH__+0x7e0095>
     ab4:	10 92 94 00 	sts	0x0094, r1	; 0x800094 <__TEXT_REGION_LENGTH__+0x7e0094>
     ab8:	08 95       	ret

00000aba <set_motor_off>:
}

//Turns the motor off via GPIOs
void set_motor_off (void){
	//Set both motor ctrl pins to low
	PORTD &=  ~(1 << PIN_MOTOR_CW);
     aba:	5b 98       	cbi	0x0b, 3	; 11
	PORTD &=  ~(1 << PIN_MOTOR_CCW);
     abc:	5a 98       	cbi	0x0b, 2	; 11
	#else
		//round up by default
		__ticks_dc = (uint32_t)(ceil(fabs(__tmp)));
	#endif

	__builtin_avr_delay_cycles(__ticks_dc);
     abe:	2f ef       	ldi	r18, 0xFF	; 255
     ac0:	80 e7       	ldi	r24, 0x70	; 112
     ac2:	92 e0       	ldi	r25, 0x02	; 2
     ac4:	21 50       	subi	r18, 0x01	; 1
     ac6:	80 40       	sbci	r24, 0x00	; 0
     ac8:	90 40       	sbci	r25, 0x00	; 0
     aca:	e1 f7       	brne	.-8      	; 0xac4 <set_motor_off+0xa>
     acc:	00 c0       	rjmp	.+0      	; 0xace <set_motor_off+0x14>
     ace:	00 00       	nop
     ad0:	08 95       	ret

00000ad2 <chk_adc_range>:

//Checks if the current adc value is within its allowed range
//To chekc if the motor reached its the upper or lower boundary
uint8_t chk_adc_range(uint16_t val)
{
	if (val <= ADC_POT_LO_TH ){
     ad2:	8a 30       	cpi	r24, 0x0A	; 10
     ad4:	91 05       	cpc	r25, r1
     ad6:	28 f0       	brcs	.+10     	; 0xae2 <chk_adc_range+0x10>
		//Motor potentiometer left limit
		return ADC_POT_STAT_LO;
	} else if (val >= ADC_POT_HI_TH){
     ad8:	8f 3f       	cpi	r24, 0xFF	; 255
     ada:	93 40       	sbci	r25, 0x03	; 3
     adc:	20 f4       	brcc	.+8      	; 0xae6 <chk_adc_range+0x14>
		//Motor potentiometer right limit
		return ADC_POT_STAT_HI;
	}
	else {
		//Motor not at limit
		return ADC_POT_STAT_OK;
     ade:	80 e0       	ldi	r24, 0x00	; 0
     ae0:	08 95       	ret
//To chekc if the motor reached its the upper or lower boundary
uint8_t chk_adc_range(uint16_t val)
{
	if (val <= ADC_POT_LO_TH ){
		//Motor potentiometer left limit
		return ADC_POT_STAT_LO;
     ae2:	81 e0       	ldi	r24, 0x01	; 1
     ae4:	08 95       	ret
	} else if (val >= ADC_POT_HI_TH){
		//Motor potentiometer right limit
		return ADC_POT_STAT_HI;
     ae6:	82 e0       	ldi	r24, 0x02	; 2
	}
	else {
		//Motor not at limit
		return ADC_POT_STAT_OK;
	}
}
     ae8:	08 95       	ret

00000aea <volup>:
}

//Sets the FSM state for volup
void volup(uint8_t argc, char *argv[]){
	
	if (argc > cmd_set[CMD_IDX_VOLUP].arg_cnt ){
     aea:	90 91 0a 01 	lds	r25, 0x010A	; 0x80010a <cmd_set>
     aee:	98 17       	cp	r25, r24
     af0:	28 f4       	brcc	.+10     	; 0xafc <volup+0x12>
		uart0_puts_p(PSTR("Volup does not expect a argument!\r\n"));
     af2:	82 e8       	ldi	r24, 0x82	; 130
     af4:	94 e0       	ldi	r25, 0x04	; 4
     af6:	0e 94 08 16 	call	0x2c10	; 0x2c10 <uart0_puts_p>
		return;
     afa:	08 95       	ret
	}
	
	//Broadcast a notification via UART
	uart0_puts_p(PSTR("volup\r\n"));
     afc:	8a e7       	ldi	r24, 0x7A	; 122
     afe:	94 e0       	ldi	r25, 0x04	; 4
     b00:	0e 94 08 16 	call	0x2c10	; 0x2c10 <uart0_puts_p>
	
	//Change FSM_STATE
	FSM_STATE = STATE_VOLUP;
     b04:	81 e0       	ldi	r24, 0x01	; 1
     b06:	80 93 1c 02 	sts	0x021C, r24	; 0x80021c <FSM_STATE>
     b0a:	08 95       	ret

00000b0c <voldown>:

//Sets the FSM state for voldown
void voldown(uint8_t argc, char *argv[]){
	//Broadcast a notification via UART
	
	if (argc > cmd_set[CMD_IDX_VOLDOWN].arg_cnt ){
     b0c:	90 91 17 01 	lds	r25, 0x0117	; 0x800117 <cmd_set+0xd>
     b10:	98 17       	cp	r25, r24
     b12:	28 f4       	brcc	.+10     	; 0xb1e <voldown+0x12>
		uart0_puts_p(PSTR("voldown does not expect a argument!\r\n"));
     b14:	84 e5       	ldi	r24, 0x54	; 84
     b16:	94 e0       	ldi	r25, 0x04	; 4
     b18:	0e 94 08 16 	call	0x2c10	; 0x2c10 <uart0_puts_p>
		return;
     b1c:	08 95       	ret
	}
	
	uart0_puts_p(PSTR("voldown\r\n"));
     b1e:	8a e4       	ldi	r24, 0x4A	; 74
     b20:	94 e0       	ldi	r25, 0x04	; 4
     b22:	0e 94 08 16 	call	0x2c10	; 0x2c10 <uart0_puts_p>
	
	//Change FSM_STATE
	FSM_STATE = STATE_VOLDOWN;
     b26:	82 e0       	ldi	r24, 0x02	; 2
     b28:	80 93 1c 02 	sts	0x021C, r24	; 0x80021c <FSM_STATE>
     b2c:	08 95       	ret

00000b2e <setvolume>:
}

//Sets the FSM state for setvolume and sets the setvol_targ for the volume search
void setvolume(uint8_t argc, char *argv[]){
     b2e:	cf 93       	push	r28
     b30:	df 93       	push	r29
     b32:	eb 01       	movw	r28, r22
	
	if (argc > cmd_set[CMD_IDX_SETVOL].arg_cnt){
     b34:	90 91 24 01 	lds	r25, 0x0124	; 0x800124 <cmd_set+0x1a>
     b38:	98 17       	cp	r25, r24
     b3a:	28 f4       	brcc	.+10     	; 0xb46 <setvolume+0x18>
		uart0_puts_p(PSTR("Invalid Argument count!\r\n"));
     b3c:	80 e3       	ldi	r24, 0x30	; 48
     b3e:	94 e0       	ldi	r25, 0x04	; 4
     b40:	0e 94 08 16 	call	0x2c10	; 0x2c10 <uart0_puts_p>
		return;
     b44:	1e c0       	rjmp	.+60     	; 0xb82 <setvolume+0x54>
	}

	uart0_puts_p(PSTR("setvol\r\n"));
     b46:	87 e2       	ldi	r24, 0x27	; 39
     b48:	94 e0       	ldi	r25, 0x04	; 4
     b4a:	0e 94 08 16 	call	0x2c10	; 0x2c10 <uart0_puts_p>
			uart0_puts_p(PSTR("\r\n"));
		}
	#endif
	
	//Get integer from argument vector (string)
	idx = atoi( argv[0] );
     b4e:	88 81       	ld	r24, Y
     b50:	99 81       	ldd	r25, Y+1	; 0x01
     b52:	0e 94 eb 18 	call	0x31d6	; 0x31d6 <atoi>
	
	if ( (idx > 100) || (idx < 0) ){
     b56:	85 36       	cpi	r24, 0x65	; 101
     b58:	91 05       	cpc	r25, r1
     b5a:	28 f0       	brcs	.+10     	; 0xb66 <setvolume+0x38>
		uart0_puts_p(PSTR("Argument out of range!\r\n"));
     b5c:	8e e0       	ldi	r24, 0x0E	; 14
     b5e:	94 e0       	ldi	r25, 0x04	; 4
     b60:	0e 94 08 16 	call	0x2c10	; 0x2c10 <uart0_puts_p>
		//error_led(TRUE);
		return;
     b64:	0e c0       	rjmp	.+28     	; 0xb82 <setvolume+0x54>
	}
	
	//To accsess data from program memory
	//Adress the data as normal -> take the address &()
	//use pgm_read marko
	setvol_targ = pgm_read_word( &(poti_log_curve[idx]) );
     b66:	fc 01       	movw	r30, r24
     b68:	ee 0f       	add	r30, r30
     b6a:	ff 1f       	adc	r31, r31
     b6c:	eb 54       	subi	r30, 0x4B	; 75
     b6e:	fb 4f       	sbci	r31, 0xFB	; 251
     b70:	85 91       	lpm	r24, Z+
     b72:	94 91       	lpm	r25, Z
     b74:	90 93 19 02 	sts	0x0219, r25	; 0x800219 <setvol_targ+0x1>
     b78:	80 93 18 02 	sts	0x0218, r24	; 0x800218 <setvol_targ>
	
	//Switch to STATE_SETVOL FSM State
	FSM_STATE = STATE_SETVOL;
     b7c:	83 e0       	ldi	r24, 0x03	; 3
     b7e:	80 93 1c 02 	sts	0x021C, r24	; 0x80021c <FSM_STATE>
	#if DEBUG_MSG
		uart0_puts_p(PSTR("Target ADC value: "));
		uart0_puts(itoa(setvol_targ, buffer, 10));
		uart0_puts_p(PSTR("\r\n"));
	#endif
}
     b82:	df 91       	pop	r29
     b84:	cf 91       	pop	r28
     b86:	08 95       	ret

00000b88 <error_led>:

//sets the error led on or off
void error_led (uint8_t status){
	if ( status ){
     b88:	88 23       	and	r24, r24
     b8a:	11 f0       	breq	.+4      	; 0xb90 <error_led+0x8>
		//Turn ERROR LED on
		PORTB |= (1 << ERROR_LED);
     b8c:	2d 9a       	sbi	0x05, 5	; 5
     b8e:	08 95       	ret
	}
	else {
		//Turn ERROR LED off
		PORTB &= ~(1 << ERROR_LED);
     b90:	2d 98       	cbi	0x05, 5	; 5
     b92:	08 95       	ret

00000b94 <get_motor_stat>:
	TCNT3 = 0;
}

//Checks the GPIO Pins for motor status and returns a value defined in
uint8_t get_motor_stat(void){
	uint8_t pin_motor_cw = (PIND & (1 << PIN_MOTOR_CW));
     b94:	39 b1       	in	r19, 0x09	; 9
	uint8_t pin_motor_ccw = (PIND & (1 << PIN_MOTOR_CCW));
     b96:	29 b1       	in	r18, 0x09	; 9
	
	uint8_t motor_stat = ((pin_motor_cw >> PIN_MOTOR_CW) << 1) | (pin_motor_ccw >> PIN_MOTOR_CCW);
	
	switch (motor_stat){
     b98:	33 fb       	bst	r19, 3
     b9a:	88 27       	eor	r24, r24
     b9c:	80 f9       	bld	r24, 0
     b9e:	90 e0       	ldi	r25, 0x00	; 0
     ba0:	88 0f       	add	r24, r24
     ba2:	99 1f       	adc	r25, r25
     ba4:	22 fb       	bst	r18, 2
     ba6:	99 27       	eor	r25, r25
     ba8:	90 f9       	bld	r25, 0
     baa:	89 2b       	or	r24, r25
     bac:	81 30       	cpi	r24, 0x01	; 1
     bae:	39 f0       	breq	.+14     	; 0xbbe <get_motor_stat+0x2a>
     bb0:	82 30       	cpi	r24, 0x02	; 2
     bb2:	19 f0       	breq	.+6      	; 0xbba <get_motor_stat+0x26>
     bb4:	81 11       	cpse	r24, r1
     bb6:	05 c0       	rjmp	.+10     	; 0xbc2 <get_motor_stat+0x2e>
     bb8:	09 c0       	rjmp	.+18     	; 0xbcc <get_motor_stat+0x38>
		case 0b00:
			return MOTOR_STAT_OFF;
			break;
		case 0b10:
			return MOTOR_STAT_CW;
     bba:	81 e0       	ldi	r24, 0x01	; 1
     bbc:	08 95       	ret
			break;
		case 0b01:
			return MOTOR_STAT_CCW;
     bbe:	82 e0       	ldi	r24, 0x02	; 2
     bc0:	08 95       	ret
			break;
		default: 
			//ERROR
			error_led(TRUE);
     bc2:	81 e0       	ldi	r24, 0x01	; 1
     bc4:	0e 94 c4 05 	call	0xb88	; 0xb88 <error_led>
			break;
	}
	return -1;
     bc8:	8f ef       	ldi	r24, 0xFF	; 255
     bca:	08 95       	ret
	
	uint8_t motor_stat = ((pin_motor_cw >> PIN_MOTOR_CW) << 1) | (pin_motor_ccw >> PIN_MOTOR_CCW);
	
	switch (motor_stat){
		case 0b00:
			return MOTOR_STAT_OFF;
     bcc:	80 e0       	ldi	r24, 0x00	; 0
			//ERROR
			error_led(TRUE);
			break;
	}
	return -1;
}
     bce:	08 95       	ret

00000bd0 <set_motor_cw>:

//Turns the motor in CW direction, checks the current motor state
//and reacts to it (e.g. turn the motor off, before changing the rotation direction)
void set_motor_cw (void){
	
	switch (get_motor_stat()){
     bd0:	0e 94 ca 05 	call	0xb94	; 0xb94 <get_motor_stat>
     bd4:	88 23       	and	r24, r24
     bd6:	19 f0       	breq	.+6      	; 0xbde <set_motor_cw+0xe>
     bd8:	82 30       	cpi	r24, 0x02	; 2
     bda:	21 f0       	breq	.+8      	; 0xbe4 <set_motor_cw+0x14>
     bdc:	08 95       	ret
		case MOTOR_STAT_OFF:
			//Motor was off -> turn on in cw direction
			PORTD |= (1 << PIN_MOTOR_CW);		//1
     bde:	5b 9a       	sbi	0x0b, 3	; 11
			PORTD &=  ~(1 << PIN_MOTOR_CCW);	//0
     be0:	5a 98       	cbi	0x0b, 2	; 11
			break;
     be2:	08 95       	ret
		
		case MOTOR_STAT_CCW:
			//Motor is turning CCW
			set_motor_off();
     be4:	0e 94 5d 05 	call	0xaba	; 0xaba <set_motor_off>
			inc_timer_stop();
     be8:	0e 94 50 05 	call	0xaa0	; 0xaa0 <inc_timer_stop>
     bec:	2f ef       	ldi	r18, 0xFF	; 255
     bee:	80 e7       	ldi	r24, 0x70	; 112
     bf0:	92 e0       	ldi	r25, 0x02	; 2
     bf2:	21 50       	subi	r18, 0x01	; 1
     bf4:	80 40       	sbci	r24, 0x00	; 0
     bf6:	90 40       	sbci	r25, 0x00	; 0
     bf8:	e1 f7       	brne	.-8      	; 0xbf2 <set_motor_cw+0x22>
     bfa:	00 c0       	rjmp	.+0      	; 0xbfc <set_motor_cw+0x2c>
     bfc:	00 00       	nop
			_delay_ms(MOTOR_OFF_DELAY_MS);
			
			//Tur on in cw direction
			PORTD |= (1 << PIN_MOTOR_CW);		//1
     bfe:	5b 9a       	sbi	0x0b, 3	; 11
			PORTD &=  ~(1 << PIN_MOTOR_CCW);	//0
     c00:	5a 98       	cbi	0x0b, 2	; 11
     c02:	08 95       	ret

00000c04 <set_motor_ccw>:

//Turns the motor in CCW direction, checks the current motor state
//and reacts to it (e.g. turn the motor off, before changing the rotation direction)
void set_motor_ccw (void){
	
	switch (get_motor_stat()){
     c04:	0e 94 ca 05 	call	0xb94	; 0xb94 <get_motor_stat>
     c08:	81 30       	cpi	r24, 0x01	; 1
     c0a:	39 f0       	breq	.+14     	; 0xc1a <set_motor_ccw+0x16>
     c0c:	18 f0       	brcs	.+6      	; 0xc14 <set_motor_ccw+0x10>
     c0e:	82 30       	cpi	r24, 0x02	; 2
     c10:	b9 f0       	breq	.+46     	; 0xc40 <set_motor_ccw+0x3c>
     c12:	13 c0       	rjmp	.+38     	; 0xc3a <set_motor_ccw+0x36>
		case MOTOR_STAT_OFF:
			//Motor was off -> turn on in ccw direction
			PORTD &=  ~(1 << PIN_MOTOR_CW);		//0
     c14:	5b 98       	cbi	0x0b, 3	; 11
			PORTD |=  (1 << PIN_MOTOR_CCW);		//1
     c16:	5a 9a       	sbi	0x0b, 2	; 11
			break;
     c18:	08 95       	ret
			//do noting...
			break;

		case MOTOR_STAT_CW:
			//Motor is turning CW -> Turn off Motor
			set_motor_off();
     c1a:	0e 94 5d 05 	call	0xaba	; 0xaba <set_motor_off>
			inc_timer_stop();
     c1e:	0e 94 50 05 	call	0xaa0	; 0xaa0 <inc_timer_stop>
     c22:	2f ef       	ldi	r18, 0xFF	; 255
     c24:	80 e7       	ldi	r24, 0x70	; 112
     c26:	92 e0       	ldi	r25, 0x02	; 2
     c28:	21 50       	subi	r18, 0x01	; 1
     c2a:	80 40       	sbci	r24, 0x00	; 0
     c2c:	90 40       	sbci	r25, 0x00	; 0
     c2e:	e1 f7       	brne	.-8      	; 0xc28 <set_motor_ccw+0x24>
     c30:	00 c0       	rjmp	.+0      	; 0xc32 <set_motor_ccw+0x2e>
     c32:	00 00       	nop
			_delay_ms(MOTOR_OFF_DELAY_MS);
			
			//Turn on in CCW direction
			PORTD &=  ~(1 << PIN_MOTOR_CW);		//0
     c34:	5b 98       	cbi	0x0b, 3	; 11
			PORTD |=  (1 << PIN_MOTOR_CCW);		//1
     c36:	5a 9a       	sbi	0x0b, 2	; 11
			break;
     c38:	08 95       	ret

		default: 
			error_led(TRUE); //Error
     c3a:	81 e0       	ldi	r24, 0x01	; 1
     c3c:	0e 94 c4 05 	call	0xb88	; 0xb88 <error_led>
     c40:	08 95       	ret

00000c42 <regrem>:
	}
}

//Registers a new remote. Waits for a IR-Key and stores 
//the updated ir keyset in EEPROM
void regrem(uint8_t argc, char *argv[]){
     c42:	9f 92       	push	r9
     c44:	af 92       	push	r10
     c46:	bf 92       	push	r11
     c48:	cf 92       	push	r12
     c4a:	df 92       	push	r13
     c4c:	ef 92       	push	r14
     c4e:	ff 92       	push	r15
     c50:	0f 93       	push	r16
     c52:	1f 93       	push	r17
     c54:	cf 93       	push	r28
     c56:	df 93       	push	r29
     c58:	cd b7       	in	r28, 0x3d	; 61
     c5a:	de b7       	in	r29, 0x3e	; 62
     c5c:	ab 97       	sbiw	r28, 0x2b	; 43
     c5e:	0f b6       	in	r0, 0x3f	; 63
     c60:	f8 94       	cli
     c62:	de bf       	out	0x3e, r29	; 62
     c64:	0f be       	out	0x3f, r0	; 63
     c66:	cd bf       	out	0x3d, r28	; 61
     c68:	98 2e       	mov	r9, r24
     c6a:	6b 01       	movw	r12, r22
	const uint8_t waitloop_iter_time = 10; //ms
	uint8_t tmp = 0;
	char desc[MAX_ARG_LEN];
	
	//Check if there is space for more keys
	if (ir_keyset_len > IR_KEY_MAX_NUM){
     c6c:	80 91 17 02 	lds	r24, 0x0217	; 0x800217 <ir_keyset_len>
     c70:	8e 30       	cpi	r24, 0x0E	; 14
     c72:	28 f0       	brcs	.+10     	; 0xc7e <regrem+0x3c>
		uart0_puts_p(PSTR("The maximum numer of keys to register is reached!\r\n"));
     c74:	8a ed       	ldi	r24, 0xDA	; 218
     c76:	93 e0       	ldi	r25, 0x03	; 3
     c78:	0e 94 08 16 	call	0x2c10	; 0x2c10 <uart0_puts_p>
		return;
     c7c:	e6 c0       	rjmp	.+460    	; 0xe4a <regrem+0x208>
	}
	
	//Copy description to temporary variable
	strcpy(desc, argv[0]);
     c7e:	fb 01       	movw	r30, r22
     c80:	60 81       	ld	r22, Z
     c82:	71 81       	ldd	r23, Z+1	; 0x01
     c84:	ce 01       	movw	r24, r28
     c86:	82 96       	adiw	r24, 0x22	; 34
     c88:	0e 94 3f 19 	call	0x327e	; 0x327e <strcpy>
	
	//Get the command Index from the first argument (command word)
	for (int i = 0; i < NUM_CMDS; i++)
	{
		//search for the input cmd string in available commands
		if ( strcmp( argv[1], cmd_set[i].cmd_word ) == 0){
     c8c:	f6 01       	movw	r30, r12
     c8e:	a2 80       	ldd	r10, Z+2	; 0x02
     c90:	b3 80       	ldd	r11, Z+3	; 0x03
     c92:	0f 2e       	mov	r0, r31
     c94:	fd e0       	ldi	r31, 0x0D	; 13
     c96:	ef 2e       	mov	r14, r31
     c98:	f1 e0       	ldi	r31, 0x01	; 1
     c9a:	ff 2e       	mov	r15, r31
     c9c:	f0 2d       	mov	r31, r0
	
	//Copy description to temporary variable
	strcpy(desc, argv[0]);
	
	//Get the command Index from the first argument (command word)
	for (int i = 0; i < NUM_CMDS; i++)
     c9e:	00 e0       	ldi	r16, 0x00	; 0
     ca0:	10 e0       	ldi	r17, 0x00	; 0
	{
		//search for the input cmd string in available commands
		if ( strcmp( argv[1], cmd_set[i].cmd_word ) == 0){
     ca2:	b7 01       	movw	r22, r14
     ca4:	c5 01       	movw	r24, r10
     ca6:	0e 94 36 19 	call	0x326c	; 0x326c <strcmp>
     caa:	89 2b       	or	r24, r25
     cac:	89 f4       	brne	.+34     	; 0xcd0 <regrem+0x8e>
			//cmd string matches a command
			tmp = 1;
			ir_key_tmp.cmd_idx = i;
     cae:	0e 83       	std	Y+6, r16	; 0x06
		ir_key_tmp.cmd_idx = 0xFF;
		return;
	}
	
	//Check if the number of arguments is correnct
	if ( (argc - 2) != cmd_set[ir_key_tmp.cmd_idx].arg_cnt ){
     cb0:	29 2d       	mov	r18, r9
     cb2:	30 e0       	ldi	r19, 0x00	; 0
     cb4:	22 50       	subi	r18, 0x02	; 2
     cb6:	31 09       	sbc	r19, r1
     cb8:	8d e0       	ldi	r24, 0x0D	; 13
     cba:	08 9f       	mul	r16, r24
     cbc:	f0 01       	movw	r30, r0
     cbe:	11 24       	eor	r1, r1
     cc0:	e6 5f       	subi	r30, 0xF6	; 246
     cc2:	fe 4f       	sbci	r31, 0xFE	; 254
     cc4:	80 81       	ld	r24, Z
     cc6:	90 e0       	ldi	r25, 0x00	; 0
     cc8:	28 17       	cp	r18, r24
     cca:	39 07       	cpc	r19, r25
     ccc:	51 f4       	brne	.+20     	; 0xce2 <regrem+0xa0>
     cce:	0e c0       	rjmp	.+28     	; 0xcec <regrem+0xaa>
	
	//Copy description to temporary variable
	strcpy(desc, argv[0]);
	
	//Get the command Index from the first argument (command word)
	for (int i = 0; i < NUM_CMDS; i++)
     cd0:	0f 5f       	subi	r16, 0xFF	; 255
     cd2:	1f 4f       	sbci	r17, 0xFF	; 255
     cd4:	9d e0       	ldi	r25, 0x0D	; 13
     cd6:	e9 0e       	add	r14, r25
     cd8:	f1 1c       	adc	r15, r1
     cda:	0b 30       	cpi	r16, 0x0B	; 11
     cdc:	11 05       	cpc	r17, r1
     cde:	09 f7       	brne	.-62     	; 0xca2 <regrem+0x60>
     ce0:	b0 c0       	rjmp	.+352    	; 0xe42 <regrem+0x200>
		return;
	}
	
	//Check if the number of arguments is correnct
	if ( (argc - 2) != cmd_set[ir_key_tmp.cmd_idx].arg_cnt ){
		uart0_puts_p(PSTR("regrem: Invalid number of arguments for cmd to register\r\n"));
     ce2:	8e e6       	ldi	r24, 0x6E	; 110
     ce4:	93 e0       	ldi	r25, 0x03	; 3
     ce6:	0e 94 08 16 	call	0x2c10	; 0x2c10 <uart0_puts_p>
		ir_key_tmp.cmd_idx = 0xFF;
		return;
     cea:	af c0       	rjmp	.+350    	; 0xe4a <regrem+0x208>
	}
	

	ir_key_tmp.arg_str[0] = 0;
     cec:	1f 82       	std	Y+7, r1	; 0x07
	//Append all remaining arguments to arg_str
	if ( argc > 2 ) {
     cee:	8d ef       	ldi	r24, 0xFD	; 253
     cf0:	89 0d       	add	r24, r9
     cf2:	8d 3f       	cpi	r24, 0xFD	; 253
     cf4:	10 f5       	brcc	.+68     	; 0xd3a <regrem+0xf8>
     cf6:	86 01       	movw	r16, r12
     cf8:	0c 5f       	subi	r16, 0xFC	; 252
     cfa:	1f 4f       	sbci	r17, 0xFF	; 255
     cfc:	89 2d       	mov	r24, r9
     cfe:	90 e0       	ldi	r25, 0x00	; 0
     d00:	88 0f       	add	r24, r24
     d02:	99 1f       	adc	r25, r25
     d04:	c8 0e       	add	r12, r24
     d06:	d9 1e       	adc	r13, r25
		//strcpy(ir_key_tmp.arg_str," ");

		
		for (int i = 2; i < argc; i++){
			
			strcat(ir_key_tmp.arg_str, " ");
     d08:	7e 01       	movw	r14, r28
     d0a:	e7 e0       	ldi	r30, 0x07	; 7
     d0c:	ee 0e       	add	r14, r30
     d0e:	f1 1c       	adc	r15, r1
     d10:	68 94       	set
     d12:	aa 24       	eor	r10, r10
     d14:	a5 f8       	bld	r10, 5
     d16:	b1 2c       	mov	r11, r1
     d18:	f7 01       	movw	r30, r14
     d1a:	01 90       	ld	r0, Z+
     d1c:	00 20       	and	r0, r0
     d1e:	e9 f7       	brne	.-6      	; 0xd1a <regrem+0xd8>
     d20:	31 97       	sbiw	r30, 0x01	; 1
     d22:	b1 82       	std	Z+1, r11	; 0x01
     d24:	a0 82       	st	Z, r10
			strcat(ir_key_tmp.arg_str, argv[i]);
     d26:	f8 01       	movw	r30, r16
     d28:	61 91       	ld	r22, Z+
     d2a:	71 91       	ld	r23, Z+
     d2c:	8f 01       	movw	r16, r30
     d2e:	c7 01       	movw	r24, r14
     d30:	0e 94 2b 19 	call	0x3256	; 0x3256 <strcat>
	//Append all remaining arguments to arg_str
	if ( argc > 2 ) {
		//strcpy(ir_key_tmp.arg_str," ");

		
		for (int i = 2; i < argc; i++){
     d34:	0c 15       	cp	r16, r12
     d36:	1d 05       	cpc	r17, r13
     d38:	79 f7       	brne	.-34     	; 0xd18 <regrem+0xd6>
			
		}
	}
	
	//Wait for of a user input of a new ir-keypress
	uart0_puts_p(PSTR("Press the desired key on the ir-remote\r\n"));
     d3a:	85 e4       	ldi	r24, 0x45	; 69
     d3c:	93 e0       	ldi	r25, 0x03	; 3
     d3e:	0e 94 08 16 	call	0x2c10	; 0x2c10 <uart0_puts_p>
	while (!irmp_get_data (&irmp_data)){
     d42:	0f 2e       	mov	r0, r31
     d44:	f4 ef       	ldi	r31, 0xF4	; 244
     d46:	ef 2e       	mov	r14, r31
     d48:	ff 24       	eor	r15, r15
     d4a:	f3 94       	inc	r15
     d4c:	f0 2d       	mov	r31, r0
	//Arg 1:			CMD Word
	//Arg 2 ... end :	CMD Arguments
	
	ir_key ir_key_tmp;
	uint8_t ani_pt_cnt = 0;
	uint8_t ani_line_cnt = 0;
     d4e:	00 e0       	ldi	r16, 0x00	; 0
	//Arg 0:			Description
	//Arg 1:			CMD Word
	//Arg 2 ... end :	CMD Arguments
	
	ir_key ir_key_tmp;
	uint8_t ani_pt_cnt = 0;
     d50:	10 e0       	ldi	r17, 0x00	; 0
		}
	}
	
	//Wait for of a user input of a new ir-keypress
	uart0_puts_p(PSTR("Press the desired key on the ir-remote\r\n"));
	while (!irmp_get_data (&irmp_data)){
     d52:	1d c0       	rjmp	.+58     	; 0xd8e <regrem+0x14c>
		//Got no IR Message...
		//Print Wait Animation
		if (ani_pt_cnt > 8){
     d54:	19 30       	cpi	r17, 0x09	; 9
     d56:	58 f0       	brcs	.+22     	; 0xd6e <regrem+0x12c>
			
			if (ani_line_cnt > 15){
     d58:	00 31       	cpi	r16, 0x10	; 16
     d5a:	20 f0       	brcs	.+8      	; 0xd64 <regrem+0x122>
				uart0_putc('\r');
     d5c:	8d e0       	ldi	r24, 0x0D	; 13
     d5e:	0e 94 e0 15 	call	0x2bc0	; 0x2bc0 <uart0_putc>
				ani_line_cnt = 0;
     d62:	00 e0       	ldi	r16, 0x00	; 0
			}
			uart0_putc('.');
     d64:	8e e2       	ldi	r24, 0x2E	; 46
     d66:	0e 94 e0 15 	call	0x2bc0	; 0x2bc0 <uart0_putc>
			ani_line_cnt++;
     d6a:	0f 5f       	subi	r16, 0xFF	; 255
			ani_pt_cnt = 0;
     d6c:	10 e0       	ldi	r17, 0x00	; 0
     d6e:	8f e1       	ldi	r24, 0x1F	; 31
     d70:	9e e4       	ldi	r25, 0x4E	; 78
     d72:	01 97       	sbiw	r24, 0x01	; 1
     d74:	f1 f7       	brne	.-4      	; 0xd72 <regrem+0x130>
     d76:	00 c0       	rjmp	.+0      	; 0xd78 <regrem+0x136>
     d78:	00 00       	nop
		}
			
		//Increment Wait time
		_delay_ms(waitloop_iter_time);
			
		ani_pt_cnt++;
     d7a:	1f 5f       	subi	r17, 0xFF	; 255
     d7c:	91 e0       	ldi	r25, 0x01	; 1
     d7e:	e9 1a       	sub	r14, r25
     d80:	f1 08       	sbc	r15, r1
		timeout_cnt++;

		if ( timeout_cnt*waitloop_iter_time >= IR_KEY_REG_TIMEOUT*1000){
     d82:	29 f4       	brne	.+10     	; 0xd8e <regrem+0x14c>
			uart0_puts_p(PSTR("\r\nTimeout!\r\n"));
     d84:	88 e3       	ldi	r24, 0x38	; 56
     d86:	93 e0       	ldi	r25, 0x03	; 3
     d88:	0e 94 08 16 	call	0x2c10	; 0x2c10 <uart0_puts_p>
			return;
     d8c:	5e c0       	rjmp	.+188    	; 0xe4a <regrem+0x208>
		}
	}
	
	//Wait for of a user input of a new ir-keypress
	uart0_puts_p(PSTR("Press the desired key on the ir-remote\r\n"));
	while (!irmp_get_data (&irmp_data)){
     d8e:	8b e4       	ldi	r24, 0x4B	; 75
     d90:	93 e0       	ldi	r25, 0x03	; 3
     d92:	0e 94 c7 0f 	call	0x1f8e	; 0x1f8e <irmp_get_data>
     d96:	88 23       	and	r24, r24
     d98:	e9 f2       	breq	.-70     	; 0xd54 <regrem+0x112>
		if ( timeout_cnt*waitloop_iter_time >= IR_KEY_REG_TIMEOUT*1000){
			uart0_puts_p(PSTR("\r\nTimeout!\r\n"));
			return;
		}
	}
	uart0_puts_p(PSTR("\r\n"));
     d9a:	85 e3       	ldi	r24, 0x35	; 53
     d9c:	93 e0       	ldi	r25, 0x03	; 3
     d9e:	0e 94 08 16 	call	0x2c10	; 0x2c10 <uart0_puts_p>

	//We have a valid Keypress!
	uart0_puts_p(PSTR("Keypress registered\r\n"));
     da2:	8f e1       	ldi	r24, 0x1F	; 31
     da4:	93 e0       	ldi	r25, 0x03	; 3
     da6:	0e 94 08 16 	call	0x2c10	; 0x2c10 <uart0_puts_p>

	//Fill the Key Data
	ir_key_tmp.key_data.ir_prot   = irmp_data.protocol;
     daa:	eb e4       	ldi	r30, 0x4B	; 75
     dac:	f3 e0       	ldi	r31, 0x03	; 3
     dae:	80 81       	ld	r24, Z
     db0:	89 83       	std	Y+1, r24	; 0x01
	ir_key_tmp.key_data.ir_addr = irmp_data.address;
     db2:	81 81       	ldd	r24, Z+1	; 0x01
     db4:	92 81       	ldd	r25, Z+2	; 0x02
     db6:	9b 83       	std	Y+3, r25	; 0x03
     db8:	8a 83       	std	Y+2, r24	; 0x02
	ir_key_tmp.key_data.ir_cmd = irmp_data.command;
     dba:	83 81       	ldd	r24, Z+3	; 0x03
     dbc:	94 81       	ldd	r25, Z+4	; 0x04
     dbe:	9d 83       	std	Y+5, r25	; 0x05
     dc0:	8c 83       	std	Y+4, r24	; 0x04

	//Copy the data to the ir_keyset array
	ir_keyset[ir_keyset_len] = ir_key_tmp;
     dc2:	80 91 17 02 	lds	r24, 0x0217	; 0x800217 <ir_keyset_len>
     dc6:	e1 e2       	ldi	r30, 0x21	; 33
     dc8:	8e 9f       	mul	r24, r30
     dca:	d0 01       	movw	r26, r0
     dcc:	11 24       	eor	r1, r1
     dce:	ad 5a       	subi	r26, 0xAD	; 173
     dd0:	bc 4f       	sbci	r27, 0xFC	; 252
     dd2:	91 e2       	ldi	r25, 0x21	; 33
     dd4:	fe 01       	movw	r30, r28
     dd6:	31 96       	adiw	r30, 0x01	; 1
     dd8:	01 90       	ld	r0, Z+
     dda:	0d 92       	st	X+, r0
     ddc:	9a 95       	dec	r25
     dde:	e1 f7       	brne	.-8      	; 0xdd8 <regrem+0x196>
	ir_keyset_len++;
     de0:	8f 5f       	subi	r24, 0xFF	; 255
     de2:	80 93 17 02 	sts	0x0217, r24	; 0x800217 <ir_keyset_len>

	uart0_puts_p(PSTR("Write to EEPROM...\r\n"));
     de6:	8a e0       	ldi	r24, 0x0A	; 10
     de8:	93 e0       	ldi	r25, 0x03	; 3
     dea:	0e 94 08 16 	call	0x2c10	; 0x2c10 <uart0_puts_p>

	//Update EEPROM
	eeprom_update_block( (void*) desc , (void*) &(eeprom_ir_key_desc[ir_keyset_len - 1][0]), sizeof(desc));
     dee:	80 91 17 02 	lds	r24, 0x0217	; 0x800217 <ir_keyset_len>
     df2:	90 e0       	ldi	r25, 0x00	; 0
     df4:	01 97       	sbiw	r24, 0x01	; 1
     df6:	bc 01       	movw	r22, r24
     df8:	66 0f       	add	r22, r22
     dfa:	77 1f       	adc	r23, r23
     dfc:	88 0f       	add	r24, r24
     dfe:	99 1f       	adc	r25, r25
     e00:	88 0f       	add	r24, r24
     e02:	99 1f       	adc	r25, r25
     e04:	88 0f       	add	r24, r24
     e06:	99 1f       	adc	r25, r25
     e08:	68 0f       	add	r22, r24
     e0a:	79 1f       	adc	r23, r25
     e0c:	6e 5f       	subi	r22, 0xFE	; 254
     e0e:	7f 4f       	sbci	r23, 0xFF	; 255
     e10:	4a e0       	ldi	r20, 0x0A	; 10
     e12:	50 e0       	ldi	r21, 0x00	; 0
     e14:	ce 01       	movw	r24, r28
     e16:	82 96       	adiw	r24, 0x22	; 34
     e18:	0e 94 63 1c 	call	0x38c6	; 0x38c6 <eeprom_update_block>
	eeprom_update_block( (void*) ir_keyset , (void*) eeprom_ir_keyset, sizeof(ir_keyset));
     e1c:	4d ea       	ldi	r20, 0xAD	; 173
     e1e:	51 e0       	ldi	r21, 0x01	; 1
     e20:	64 e8       	ldi	r22, 0x84	; 132
     e22:	70 e0       	ldi	r23, 0x00	; 0
     e24:	83 e5       	ldi	r24, 0x53	; 83
     e26:	93 e0       	ldi	r25, 0x03	; 3
     e28:	0e 94 63 1c 	call	0x38c6	; 0x38c6 <eeprom_update_block>
	eeprom_update_byte( &eeprom_ir_keyset_len, ir_keyset_len);
     e2c:	60 91 17 02 	lds	r22, 0x0217	; 0x800217 <ir_keyset_len>
     e30:	83 e3       	ldi	r24, 0x33	; 51
     e32:	92 e0       	ldi	r25, 0x02	; 2
     e34:	0e 94 73 1c 	call	0x38e6	; 0x38e6 <eeprom_update_byte>

	//Print Info
	uart0_puts_p(PSTR("Key register successful!\r\n"));
     e38:	8f ee       	ldi	r24, 0xEF	; 239
     e3a:	92 e0       	ldi	r25, 0x02	; 2
     e3c:	0e 94 08 16 	call	0x2c10	; 0x2c10 <uart0_puts_p>
     e40:	04 c0       	rjmp	.+8      	; 0xe4a <regrem+0x208>
		}
	}
	
	if (tmp == 0){
		//no valid command was found
		uart0_puts_p(PSTR("regrem: You tried to register a unknown command\r\n"));
     e42:	88 ea       	ldi	r24, 0xA8	; 168
     e44:	93 e0       	ldi	r25, 0x03	; 3
     e46:	0e 94 08 16 	call	0x2c10	; 0x2c10 <uart0_puts_p>
		uart0_puts_p(PSTR("   flags: 0x"));
		itoh (buf, 2, irmp_data.flags);
		uart0_puts(buf);
		uart0_puts_p(PSTR("\r\n"));
	#endif
}
     e4a:	ab 96       	adiw	r28, 0x2b	; 43
     e4c:	0f b6       	in	r0, 0x3f	; 63
     e4e:	f8 94       	cli
     e50:	de bf       	out	0x3e, r29	; 62
     e52:	0f be       	out	0x3f, r0	; 63
     e54:	cd bf       	out	0x3d, r28	; 61
     e56:	df 91       	pop	r29
     e58:	cf 91       	pop	r28
     e5a:	1f 91       	pop	r17
     e5c:	0f 91       	pop	r16
     e5e:	ff 90       	pop	r15
     e60:	ef 90       	pop	r14
     e62:	df 90       	pop	r13
     e64:	cf 90       	pop	r12
     e66:	bf 90       	pop	r11
     e68:	af 90       	pop	r10
     e6a:	9f 90       	pop	r9
     e6c:	08 95       	ret

00000e6e <delrem>:

//Deletes a ir key with a specified index from the ir_keyset
//updates the ir_keyset in eeprom
void delrem(uint8_t argc, char *argv[]){
     e6e:	af 92       	push	r10
     e70:	bf 92       	push	r11
     e72:	cf 92       	push	r12
     e74:	df 92       	push	r13
     e76:	ef 92       	push	r14
     e78:	ff 92       	push	r15
     e7a:	0f 93       	push	r16
     e7c:	1f 93       	push	r17
     e7e:	cf 93       	push	r28
     e80:	df 93       	push	r29
     e82:	cd b7       	in	r28, 0x3d	; 61
     e84:	de b7       	in	r29, 0x3e	; 62
     e86:	2a 97       	sbiw	r28, 0x0a	; 10
     e88:	0f b6       	in	r0, 0x3f	; 63
     e8a:	f8 94       	cli
     e8c:	de bf       	out	0x3e, r29	; 62
     e8e:	0f be       	out	0x3f, r0	; 63
     e90:	cd bf       	out	0x3d, r28	; 61
     e92:	8b 01       	movw	r16, r22
	
	if (argc > cmd_set[CMD_IDX_DELREM].arg_cnt){
     e94:	90 91 4b 01 	lds	r25, 0x014B	; 0x80014b <cmd_set+0x41>
     e98:	98 17       	cp	r25, r24
     e9a:	28 f4       	brcc	.+10     	; 0xea6 <delrem+0x38>
		uart0_puts_p(PSTR("Invalid Argument count!\r\n"));
     e9c:	85 ed       	ldi	r24, 0xD5	; 213
     e9e:	92 e0       	ldi	r25, 0x02	; 2
     ea0:	0e 94 08 16 	call	0x2c10	; 0x2c10 <uart0_puts_p>
		return;
     ea4:	76 c0       	rjmp	.+236    	; 0xf92 <delrem+0x124>
	}
	
	if (ir_keyset_len < 1){
     ea6:	80 91 17 02 	lds	r24, 0x0217	; 0x800217 <ir_keyset_len>
     eaa:	81 11       	cpse	r24, r1
     eac:	05 c0       	rjmp	.+10     	; 0xeb8 <delrem+0x4a>
		uart0_puts_p(PSTR("No remote key registered. Nothing to delete!\r\n"));
     eae:	86 ea       	ldi	r24, 0xA6	; 166
     eb0:	92 e0       	ldi	r25, 0x02	; 2
     eb2:	0e 94 08 16 	call	0x2c10	; 0x2c10 <uart0_puts_p>
		return;
     eb6:	6d c0       	rjmp	.+218    	; 0xf92 <delrem+0x124>
	}
	
	uart0_puts_p(PSTR("Delete Key with index: "));
     eb8:	8e e8       	ldi	r24, 0x8E	; 142
     eba:	92 e0       	ldi	r25, 0x02	; 2
     ebc:	0e 94 08 16 	call	0x2c10	; 0x2c10 <uart0_puts_p>
	uart0_puts(argv[0]);
     ec0:	f8 01       	movw	r30, r16
     ec2:	80 81       	ld	r24, Z
     ec4:	91 81       	ldd	r25, Z+1	; 0x01
     ec6:	0e 94 f9 15 	call	0x2bf2	; 0x2bf2 <uart0_puts>
	uart0_puts_p(PSTR("\r\n"));
     eca:	8b e8       	ldi	r24, 0x8B	; 139
     ecc:	92 e0       	ldi	r25, 0x02	; 2
     ece:	0e 94 08 16 	call	0x2c10	; 0x2c10 <uart0_puts_p>
	
	//Get integer from argument vector (string)
	uint8_t idx;
	char desc_tmp[MAX_ARG_LEN];
	idx = atoi( argv[0] );
     ed2:	f8 01       	movw	r30, r16
     ed4:	80 81       	ld	r24, Z
     ed6:	91 81       	ldd	r25, Z+1	; 0x01
     ed8:	0e 94 eb 18 	call	0x31d6	; 0x31d6 <atoi>
     edc:	5c 01       	movw	r10, r24
     ede:	bb 24       	eor	r11, r11
	
	//Check if the received idx was valid
	if ( (idx + 1) > ir_keyset_len ){
     ee0:	95 01       	movw	r18, r10
     ee2:	2f 5f       	subi	r18, 0xFF	; 255
     ee4:	3f 4f       	sbci	r19, 0xFF	; 255
     ee6:	80 91 17 02 	lds	r24, 0x0217	; 0x800217 <ir_keyset_len>
     eea:	90 e0       	ldi	r25, 0x00	; 0
     eec:	82 17       	cp	r24, r18
     eee:	93 07       	cpc	r25, r19
     ef0:	2c f4       	brge	.+10     	; 0xefc <delrem+0x8e>
		uart0_puts_p(PSTR("Index out of range!\r\n"));
     ef2:	85 e7       	ldi	r24, 0x75	; 117
     ef4:	92 e0       	ldi	r25, 0x02	; 2
     ef6:	0e 94 08 16 	call	0x2c10	; 0x2c10 <uart0_puts_p>
		return;
     efa:	4b c0       	rjmp	.+150    	; 0xf92 <delrem+0x124>
     efc:	0f 2e       	mov	r0, r31
     efe:	f3 e5       	ldi	r31, 0x53	; 83
     f00:	cf 2e       	mov	r12, r31
     f02:	f3 e0       	ldi	r31, 0x03	; 3
     f04:	df 2e       	mov	r13, r31
     f06:	f0 2d       	mov	r31, r0
     f08:	0f 2e       	mov	r0, r31
     f0a:	fc e0       	ldi	r31, 0x0C	; 12
     f0c:	ef 2e       	mov	r14, r31
     f0e:	f0 e0       	ldi	r31, 0x00	; 0
     f10:	ff 2e       	mov	r15, r31
     f12:	f0 2d       	mov	r31, r0
	uint8_t idx;
	char desc_tmp[MAX_ARG_LEN];
	idx = atoi( argv[0] );
	
	//Check if the received idx was valid
	if ( (idx + 1) > ir_keyset_len ){
     f14:	00 e0       	ldi	r16, 0x00	; 0
     f16:	10 e0       	ldi	r17, 0x00	; 0
		if (i == (IR_KEY_MAX_NUM -1)){
			//last element is to be deleted
			//noting to copy
			break;
		}
		else if (i >= idx){
     f18:	0a 15       	cp	r16, r10
     f1a:	1b 05       	cpc	r17, r11
     f1c:	c4 f0       	brlt	.+48     	; 0xf4e <delrem+0xe0>
			//Copy data one index up
			ir_keyset[i] = ir_keyset[i+1];
     f1e:	81 e2       	ldi	r24, 0x21	; 33
     f20:	f6 01       	movw	r30, r12
     f22:	b1 96       	adiw	r30, 0x21	; 33
     f24:	d6 01       	movw	r26, r12
     f26:	01 90       	ld	r0, Z+
     f28:	0d 92       	st	X+, r0
     f2a:	8a 95       	dec	r24
     f2c:	e1 f7       	brne	.-8      	; 0xf26 <delrem+0xb8>
			
			//Copy description data one index up
			eeprom_read_block( (void*) desc_tmp , (void*) &(eeprom_ir_key_desc[i+1]), sizeof(eeprom_ir_key_desc[0]));
     f2e:	4a e0       	ldi	r20, 0x0A	; 10
     f30:	50 e0       	ldi	r21, 0x00	; 0
     f32:	b7 01       	movw	r22, r14
     f34:	ce 01       	movw	r24, r28
     f36:	01 96       	adiw	r24, 0x01	; 1
     f38:	0e 94 45 1c 	call	0x388a	; 0x388a <eeprom_read_block>
			eeprom_write_block( (void*) desc_tmp , (void*) &(eeprom_ir_key_desc[i]), sizeof(eeprom_ir_key_desc[0]));
     f3c:	4a e0       	ldi	r20, 0x0A	; 10
     f3e:	50 e0       	ldi	r21, 0x00	; 0
     f40:	b7 01       	movw	r22, r14
     f42:	6a 50       	subi	r22, 0x0A	; 10
     f44:	71 09       	sbc	r23, r1
     f46:	ce 01       	movw	r24, r28
     f48:	01 96       	adiw	r24, 0x01	; 1
     f4a:	0e 94 8b 1c 	call	0x3916	; 0x3916 <eeprom_write_block>
		uart0_puts_p(PSTR("Index out of range!\r\n"));
		return;
	}
	
	//Update the Keyset array
	for (int i = 0; i < IR_KEY_MAX_NUM; i++){
     f4e:	0f 5f       	subi	r16, 0xFF	; 255
     f50:	1f 4f       	sbci	r17, 0xFF	; 255
     f52:	f1 e2       	ldi	r31, 0x21	; 33
     f54:	cf 0e       	add	r12, r31
     f56:	d1 1c       	adc	r13, r1
     f58:	8a e0       	ldi	r24, 0x0A	; 10
     f5a:	e8 0e       	add	r14, r24
     f5c:	f1 1c       	adc	r15, r1
		if (i == (IR_KEY_MAX_NUM -1)){
     f5e:	0c 30       	cpi	r16, 0x0C	; 12
     f60:	11 05       	cpc	r17, r1
     f62:	d1 f6       	brne	.-76     	; 0xf18 <delrem+0xaa>
			eeprom_write_block( (void*) desc_tmp , (void*) &(eeprom_ir_key_desc[i]), sizeof(eeprom_ir_key_desc[0]));
		}
	}
	
	//One element was deleted
	ir_keyset_len--;
     f64:	80 91 17 02 	lds	r24, 0x0217	; 0x800217 <ir_keyset_len>
     f68:	81 50       	subi	r24, 0x01	; 1
     f6a:	80 93 17 02 	sts	0x0217, r24	; 0x800217 <ir_keyset_len>

	//Update EEPROM
	eeprom_update_block( (void*) ir_keyset , (void*) eeprom_ir_keyset, sizeof(ir_keyset));
     f6e:	4d ea       	ldi	r20, 0xAD	; 173
     f70:	51 e0       	ldi	r21, 0x01	; 1
     f72:	64 e8       	ldi	r22, 0x84	; 132
     f74:	70 e0       	ldi	r23, 0x00	; 0
     f76:	83 e5       	ldi	r24, 0x53	; 83
     f78:	93 e0       	ldi	r25, 0x03	; 3
     f7a:	0e 94 63 1c 	call	0x38c6	; 0x38c6 <eeprom_update_block>
	eeprom_update_byte( &eeprom_ir_keyset_len, ir_keyset_len);
     f7e:	60 91 17 02 	lds	r22, 0x0217	; 0x800217 <ir_keyset_len>
     f82:	83 e3       	ldi	r24, 0x33	; 51
     f84:	92 e0       	ldi	r25, 0x02	; 2
     f86:	0e 94 73 1c 	call	0x38e6	; 0x38e6 <eeprom_update_byte>
	
	uart0_puts_p(PSTR("Deleted!\r\n"));
     f8a:	8a e6       	ldi	r24, 0x6A	; 106
     f8c:	92 e0       	ldi	r25, 0x02	; 2
     f8e:	0e 94 08 16 	call	0x2c10	; 0x2c10 <uart0_puts_p>
}
     f92:	2a 96       	adiw	r28, 0x0a	; 10
     f94:	0f b6       	in	r0, 0x3f	; 63
     f96:	f8 94       	cli
     f98:	de bf       	out	0x3e, r29	; 62
     f9a:	0f be       	out	0x3f, r0	; 63
     f9c:	cd bf       	out	0x3d, r28	; 61
     f9e:	df 91       	pop	r29
     fa0:	cf 91       	pop	r28
     fa2:	1f 91       	pop	r17
     fa4:	0f 91       	pop	r16
     fa6:	ff 90       	pop	r15
     fa8:	ef 90       	pop	r14
     faa:	df 90       	pop	r13
     fac:	cf 90       	pop	r12
     fae:	bf 90       	pop	r11
     fb0:	af 90       	pop	r10
     fb2:	08 95       	ret

00000fb4 <showrem>:

//Prints a table of all registered ir keys to uart0
void showrem(uint8_t argc, char *argv[]){
     fb4:	2f 92       	push	r2
     fb6:	3f 92       	push	r3
     fb8:	4f 92       	push	r4
     fba:	5f 92       	push	r5
     fbc:	6f 92       	push	r6
     fbe:	7f 92       	push	r7
     fc0:	8f 92       	push	r8
     fc2:	9f 92       	push	r9
     fc4:	af 92       	push	r10
     fc6:	bf 92       	push	r11
     fc8:	cf 92       	push	r12
     fca:	df 92       	push	r13
     fcc:	ef 92       	push	r14
     fce:	ff 92       	push	r15
     fd0:	0f 93       	push	r16
     fd2:	1f 93       	push	r17
     fd4:	cf 93       	push	r28
     fd6:	df 93       	push	r29
     fd8:	cd b7       	in	r28, 0x3d	; 61
     fda:	de b7       	in	r29, 0x3e	; 62
     fdc:	68 97       	sbiw	r28, 0x18	; 24
     fde:	0f b6       	in	r0, 0x3f	; 63
     fe0:	f8 94       	cli
     fe2:	de bf       	out	0x3e, r29	; 62
     fe4:	0f be       	out	0x3f, r0	; 63
     fe6:	cd bf       	out	0x3d, r28	; 61
	
	if (argc > cmd_set[CMD_IDX_SHOWREM].arg_cnt){
     fe8:	90 91 58 01 	lds	r25, 0x0158	; 0x800158 <cmd_set+0x4e>
     fec:	98 17       	cp	r25, r24
     fee:	28 f4       	brcc	.+10     	; 0xffa <showrem+0x46>
		uart0_puts_p(PSTR("Invalid Argument count!\r\n"));
     ff0:	80 e5       	ldi	r24, 0x50	; 80
     ff2:	92 e0       	ldi	r25, 0x02	; 2
     ff4:	0e 94 08 16 	call	0x2c10	; 0x2c10 <uart0_puts_p>
     ff8:	21 c1       	rjmp	.+578    	; 0x123c <showrem+0x288>
		return;
	}
	
	uart0_puts_p(PSTR(" IDX | PROTOCOL | IR_ADDR | IR_CMD  | CMD          | DESCRIPTION\r\n"));
     ffa:	8d e0       	ldi	r24, 0x0D	; 13
     ffc:	92 e0       	ldi	r25, 0x02	; 2
     ffe:	0e 94 08 16 	call	0x2c10	; 0x2c10 <uart0_puts_p>
	const uint8_t column_width_prot = 9;
	const uint8_t column_width_ir_cmd = 6;
	const uint8_t column_width_ir_addr = 6;
	const uint8_t column_width_cmd = 13;
	
	for (int i = 0; i < ir_keyset_len ; i++){
    1002:	80 91 17 02 	lds	r24, 0x0217	; 0x800217 <ir_keyset_len>
    1006:	88 23       	and	r24, r24
    1008:	09 f4       	brne	.+2      	; 0x100c <showrem+0x58>
    100a:	18 c1       	rjmp	.+560    	; 0x123c <showrem+0x288>
    100c:	82 e0       	ldi	r24, 0x02	; 2
    100e:	90 e0       	ldi	r25, 0x00	; 0
    1010:	98 8f       	std	Y+24, r25	; 0x18
    1012:	8f 8b       	std	Y+23, r24	; 0x17
    1014:	0f 2e       	mov	r0, r31
    1016:	f3 e5       	ldi	r31, 0x53	; 83
    1018:	4f 2e       	mov	r4, r31
    101a:	f3 e0       	ldi	r31, 0x03	; 3
    101c:	5f 2e       	mov	r5, r31
    101e:	f0 2d       	mov	r31, r0
    1020:	21 2c       	mov	r2, r1
    1022:	31 2c       	mov	r3, r1
    1024:	8e 01       	movw	r16, r28
    1026:	05 5f       	subi	r16, 0xF5	; 245
    1028:	1f 4f       	sbci	r17, 0xFF	; 255

		//INDEX
		uart0_putc(' ');
		uart0_puts(itoa(i, buf, 10));
		for (int i = 0; i < (column_width_idx - strlen(buf)); i++){
    102a:	68 94       	set
    102c:	88 24       	eor	r8, r8
    102e:	82 f8       	bld	r8, 2
    1030:	91 2c       	mov	r9, r1
		
		//PROTOCOL
		uart0_putc(' ');
		strcpy_P(buf, (char*) pgm_read_word(&(irmp_protocol_names[ir_keyset[i].key_data.ir_prot])));
		uart0_puts(buf);
		for (int i = 0; i < (column_width_prot - strlen(buf)); i++){
    1032:	0f 2e       	mov	r0, r31
    1034:	f9 e0       	ldi	r31, 0x09	; 9
    1036:	af 2e       	mov	r10, r31
    1038:	b1 2c       	mov	r11, r1
    103a:	f0 2d       	mov	r31, r0
		
		//IR_ADDR
		uart0_puts_p(PSTR(" 0x"));
		
		uart0_puts(itoh(buf, 4, ir_keyset[i].key_data.ir_addr));
		for (int i = 0; i < (column_width_ir_addr - strlen(buf)); i++){
    103c:	0f 2e       	mov	r0, r31
    103e:	f6 e0       	ldi	r31, 0x06	; 6
    1040:	cf 2e       	mov	r12, r31
    1042:	d1 2c       	mov	r13, r1
    1044:	f0 2d       	mov	r31, r0
		//CMD
		uart0_putc(' ');
		strcpy(buf, cmd_set[ir_keyset[i].cmd_idx].cmd_word);
		strcat(buf, ir_keyset[i].arg_str);
		uart0_puts(buf);
		for (int i = 0; i < (column_width_cmd - strlen(buf)); i++){
    1046:	0f 2e       	mov	r0, r31
    1048:	fd e0       	ldi	r31, 0x0D	; 13
    104a:	6f 2e       	mov	r6, r31
    104c:	71 2c       	mov	r7, r1
    104e:	f0 2d       	mov	r31, r0
	const uint8_t column_width_cmd = 13;
	
	for (int i = 0; i < ir_keyset_len ; i++){

		//INDEX
		uart0_putc(' ');
    1050:	80 e2       	ldi	r24, 0x20	; 32
    1052:	0e 94 e0 15 	call	0x2bc0	; 0x2bc0 <uart0_putc>
    1056:	4a e0       	ldi	r20, 0x0A	; 10
    1058:	b8 01       	movw	r22, r16
    105a:	c1 01       	movw	r24, r2
    105c:	0e 94 77 19 	call	0x32ee	; 0x32ee <__itoa_ncheck>
		uart0_puts(itoa(i, buf, 10));
    1060:	0e 94 f9 15 	call	0x2bf2	; 0x2bf2 <uart0_puts>
		for (int i = 0; i < (column_width_idx - strlen(buf)); i++){
    1064:	e1 2c       	mov	r14, r1
    1066:	f1 2c       	mov	r15, r1
    1068:	06 c0       	rjmp	.+12     	; 0x1076 <showrem+0xc2>
			uart0_putc(' ');
    106a:	80 e2       	ldi	r24, 0x20	; 32
    106c:	0e 94 e0 15 	call	0x2bc0	; 0x2bc0 <uart0_putc>
	for (int i = 0; i < ir_keyset_len ; i++){

		//INDEX
		uart0_putc(' ');
		uart0_puts(itoa(i, buf, 10));
		for (int i = 0; i < (column_width_idx - strlen(buf)); i++){
    1070:	9f ef       	ldi	r25, 0xFF	; 255
    1072:	e9 1a       	sub	r14, r25
    1074:	f9 0a       	sbc	r15, r25
    1076:	f8 01       	movw	r30, r16
    1078:	01 90       	ld	r0, Z+
    107a:	00 20       	and	r0, r0
    107c:	e9 f7       	brne	.-6      	; 0x1078 <showrem+0xc4>
    107e:	31 97       	sbiw	r30, 0x01	; 1
    1080:	e0 1b       	sub	r30, r16
    1082:	f1 0b       	sbc	r31, r17
    1084:	c4 01       	movw	r24, r8
    1086:	8e 1b       	sub	r24, r30
    1088:	9f 0b       	sbc	r25, r31
    108a:	e8 16       	cp	r14, r24
    108c:	f9 06       	cpc	r15, r25
    108e:	68 f3       	brcs	.-38     	; 0x106a <showrem+0xb6>
			uart0_putc(' ');
		}
		uart0_putc('|');
    1090:	8c e7       	ldi	r24, 0x7C	; 124
    1092:	0e 94 e0 15 	call	0x2bc0	; 0x2bc0 <uart0_putc>
		
		//PROTOCOL
		uart0_putc(' ');
    1096:	80 e2       	ldi	r24, 0x20	; 32
    1098:	0e 94 e0 15 	call	0x2bc0	; 0x2bc0 <uart0_putc>
    109c:	5e 8a       	std	Y+22, r5	; 0x16
    109e:	4d 8a       	std	Y+21, r4	; 0x15
		strcpy_P(buf, (char*) pgm_read_word(&(irmp_protocol_names[ir_keyset[i].key_data.ir_prot])));
    10a0:	d2 01       	movw	r26, r4
    10a2:	ec 91       	ld	r30, X
    10a4:	f0 e0       	ldi	r31, 0x00	; 0
    10a6:	ee 0f       	add	r30, r30
    10a8:	ff 1f       	adc	r31, r31
    10aa:	ef 55       	subi	r30, 0x5F	; 95
    10ac:	f8 4f       	sbci	r31, 0xF8	; 248
    10ae:	65 91       	lpm	r22, Z+
    10b0:	74 91       	lpm	r23, Z
    10b2:	c8 01       	movw	r24, r16
    10b4:	0e 94 12 19 	call	0x3224	; 0x3224 <strcpy_P>
		uart0_puts(buf);
    10b8:	c8 01       	movw	r24, r16
    10ba:	0e 94 f9 15 	call	0x2bf2	; 0x2bf2 <uart0_puts>
		for (int i = 0; i < (column_width_prot - strlen(buf)); i++){
    10be:	e1 2c       	mov	r14, r1
    10c0:	f1 2c       	mov	r15, r1
    10c2:	06 c0       	rjmp	.+12     	; 0x10d0 <showrem+0x11c>
			uart0_putc(' ');
    10c4:	80 e2       	ldi	r24, 0x20	; 32
    10c6:	0e 94 e0 15 	call	0x2bc0	; 0x2bc0 <uart0_putc>
		
		//PROTOCOL
		uart0_putc(' ');
		strcpy_P(buf, (char*) pgm_read_word(&(irmp_protocol_names[ir_keyset[i].key_data.ir_prot])));
		uart0_puts(buf);
		for (int i = 0; i < (column_width_prot - strlen(buf)); i++){
    10ca:	bf ef       	ldi	r27, 0xFF	; 255
    10cc:	eb 1a       	sub	r14, r27
    10ce:	fb 0a       	sbc	r15, r27
    10d0:	f8 01       	movw	r30, r16
    10d2:	01 90       	ld	r0, Z+
    10d4:	00 20       	and	r0, r0
    10d6:	e9 f7       	brne	.-6      	; 0x10d2 <showrem+0x11e>
    10d8:	31 97       	sbiw	r30, 0x01	; 1
    10da:	e0 1b       	sub	r30, r16
    10dc:	f1 0b       	sbc	r31, r17
    10de:	c5 01       	movw	r24, r10
    10e0:	8e 1b       	sub	r24, r30
    10e2:	9f 0b       	sbc	r25, r31
    10e4:	e8 16       	cp	r14, r24
    10e6:	f9 06       	cpc	r15, r25
    10e8:	68 f3       	brcs	.-38     	; 0x10c4 <showrem+0x110>
			uart0_putc(' ');
		}
		uart0_putc('|');
    10ea:	8c e7       	ldi	r24, 0x7C	; 124
    10ec:	0e 94 e0 15 	call	0x2bc0	; 0x2bc0 <uart0_putc>
		
		//IR_ADDR
		uart0_puts_p(PSTR(" 0x"));
    10f0:	89 e0       	ldi	r24, 0x09	; 9
    10f2:	92 e0       	ldi	r25, 0x02	; 2
    10f4:	0e 94 08 16 	call	0x2c10	; 0x2c10 <uart0_puts_p>
		
		uart0_puts(itoh(buf, 4, ir_keyset[i].key_data.ir_addr));
    10f8:	ed 89       	ldd	r30, Y+21	; 0x15
    10fa:	fe 89       	ldd	r31, Y+22	; 0x16
    10fc:	41 81       	ldd	r20, Z+1	; 0x01
    10fe:	52 81       	ldd	r21, Z+2	; 0x02
    1100:	64 e0       	ldi	r22, 0x04	; 4
    1102:	c8 01       	movw	r24, r16
    1104:	0e 94 f5 04 	call	0x9ea	; 0x9ea <itoh>
    1108:	0e 94 f9 15 	call	0x2bf2	; 0x2bf2 <uart0_puts>
		for (int i = 0; i < (column_width_ir_addr - strlen(buf)); i++){
    110c:	e1 2c       	mov	r14, r1
    110e:	f1 2c       	mov	r15, r1
    1110:	06 c0       	rjmp	.+12     	; 0x111e <showrem+0x16a>
			uart0_putc(' ');
    1112:	80 e2       	ldi	r24, 0x20	; 32
    1114:	0e 94 e0 15 	call	0x2bc0	; 0x2bc0 <uart0_putc>
		
		//IR_ADDR
		uart0_puts_p(PSTR(" 0x"));
		
		uart0_puts(itoh(buf, 4, ir_keyset[i].key_data.ir_addr));
		for (int i = 0; i < (column_width_ir_addr - strlen(buf)); i++){
    1118:	ff ef       	ldi	r31, 0xFF	; 255
    111a:	ef 1a       	sub	r14, r31
    111c:	ff 0a       	sbc	r15, r31
    111e:	f8 01       	movw	r30, r16
    1120:	01 90       	ld	r0, Z+
    1122:	00 20       	and	r0, r0
    1124:	e9 f7       	brne	.-6      	; 0x1120 <showrem+0x16c>
    1126:	31 97       	sbiw	r30, 0x01	; 1
    1128:	e0 1b       	sub	r30, r16
    112a:	f1 0b       	sbc	r31, r17
    112c:	c6 01       	movw	r24, r12
    112e:	8e 1b       	sub	r24, r30
    1130:	9f 0b       	sbc	r25, r31
    1132:	e8 16       	cp	r14, r24
    1134:	f9 06       	cpc	r15, r25
    1136:	68 f3       	brcs	.-38     	; 0x1112 <showrem+0x15e>
			uart0_putc(' ');
		}
		uart0_putc('|');
    1138:	8c e7       	ldi	r24, 0x7C	; 124
    113a:	0e 94 e0 15 	call	0x2bc0	; 0x2bc0 <uart0_putc>
		
		
		//IR_CMD
		uart0_puts_p(PSTR(" 0x"));
    113e:	85 e0       	ldi	r24, 0x05	; 5
    1140:	92 e0       	ldi	r25, 0x02	; 2
    1142:	0e 94 08 16 	call	0x2c10	; 0x2c10 <uart0_puts_p>
		
		uart0_puts(itoh(buf, 4, ir_keyset[i].key_data.ir_cmd));
    1146:	ad 89       	ldd	r26, Y+21	; 0x15
    1148:	be 89       	ldd	r27, Y+22	; 0x16
    114a:	13 96       	adiw	r26, 0x03	; 3
    114c:	4d 91       	ld	r20, X+
    114e:	5c 91       	ld	r21, X
    1150:	14 97       	sbiw	r26, 0x04	; 4
    1152:	64 e0       	ldi	r22, 0x04	; 4
    1154:	c8 01       	movw	r24, r16
    1156:	0e 94 f5 04 	call	0x9ea	; 0x9ea <itoh>
    115a:	0e 94 f9 15 	call	0x2bf2	; 0x2bf2 <uart0_puts>
		for (int i = 0; i < (column_width_ir_cmd - strlen(buf)); i++){
    115e:	e1 2c       	mov	r14, r1
    1160:	f1 2c       	mov	r15, r1
    1162:	06 c0       	rjmp	.+12     	; 0x1170 <showrem+0x1bc>
			uart0_putc(' ');
    1164:	80 e2       	ldi	r24, 0x20	; 32
    1166:	0e 94 e0 15 	call	0x2bc0	; 0x2bc0 <uart0_putc>
		
		//IR_CMD
		uart0_puts_p(PSTR(" 0x"));
		
		uart0_puts(itoh(buf, 4, ir_keyset[i].key_data.ir_cmd));
		for (int i = 0; i < (column_width_ir_cmd - strlen(buf)); i++){
    116a:	bf ef       	ldi	r27, 0xFF	; 255
    116c:	eb 1a       	sub	r14, r27
    116e:	fb 0a       	sbc	r15, r27
    1170:	f8 01       	movw	r30, r16
    1172:	01 90       	ld	r0, Z+
    1174:	00 20       	and	r0, r0
    1176:	e9 f7       	brne	.-6      	; 0x1172 <showrem+0x1be>
    1178:	31 97       	sbiw	r30, 0x01	; 1
    117a:	e0 1b       	sub	r30, r16
    117c:	f1 0b       	sbc	r31, r17
    117e:	c6 01       	movw	r24, r12
    1180:	8e 1b       	sub	r24, r30
    1182:	9f 0b       	sbc	r25, r31
    1184:	e8 16       	cp	r14, r24
    1186:	f9 06       	cpc	r15, r25
    1188:	68 f3       	brcs	.-38     	; 0x1164 <showrem+0x1b0>
			uart0_putc(' ');
		}
		uart0_putc('|');
    118a:	8c e7       	ldi	r24, 0x7C	; 124
    118c:	0e 94 e0 15 	call	0x2bc0	; 0x2bc0 <uart0_putc>
		
		//CMD
		uart0_putc(' ');
    1190:	80 e2       	ldi	r24, 0x20	; 32
    1192:	0e 94 e0 15 	call	0x2bc0	; 0x2bc0 <uart0_putc>
		strcpy(buf, cmd_set[ir_keyset[i].cmd_idx].cmd_word);
    1196:	ed 89       	ldd	r30, Y+21	; 0x15
    1198:	fe 89       	ldd	r31, Y+22	; 0x16
    119a:	65 81       	ldd	r22, Z+5	; 0x05
    119c:	fd e0       	ldi	r31, 0x0D	; 13
    119e:	f6 9f       	mul	r31, r22
    11a0:	b0 01       	movw	r22, r0
    11a2:	11 24       	eor	r1, r1
    11a4:	63 5f       	subi	r22, 0xF3	; 243
    11a6:	7e 4f       	sbci	r23, 0xFE	; 254
    11a8:	c8 01       	movw	r24, r16
    11aa:	0e 94 3f 19 	call	0x327e	; 0x327e <strcpy>
		strcat(buf, ir_keyset[i].arg_str);
    11ae:	b2 01       	movw	r22, r4
    11b0:	6a 5f       	subi	r22, 0xFA	; 250
    11b2:	7f 4f       	sbci	r23, 0xFF	; 255
    11b4:	c8 01       	movw	r24, r16
    11b6:	0e 94 2b 19 	call	0x3256	; 0x3256 <strcat>
		uart0_puts(buf);
    11ba:	c8 01       	movw	r24, r16
    11bc:	0e 94 f9 15 	call	0x2bf2	; 0x2bf2 <uart0_puts>
		for (int i = 0; i < (column_width_cmd - strlen(buf)); i++){
    11c0:	e1 2c       	mov	r14, r1
    11c2:	f1 2c       	mov	r15, r1
    11c4:	06 c0       	rjmp	.+12     	; 0x11d2 <showrem+0x21e>
			uart0_putc(' ');
    11c6:	80 e2       	ldi	r24, 0x20	; 32
    11c8:	0e 94 e0 15 	call	0x2bc0	; 0x2bc0 <uart0_putc>
		//CMD
		uart0_putc(' ');
		strcpy(buf, cmd_set[ir_keyset[i].cmd_idx].cmd_word);
		strcat(buf, ir_keyset[i].arg_str);
		uart0_puts(buf);
		for (int i = 0; i < (column_width_cmd - strlen(buf)); i++){
    11cc:	8f ef       	ldi	r24, 0xFF	; 255
    11ce:	e8 1a       	sub	r14, r24
    11d0:	f8 0a       	sbc	r15, r24
    11d2:	f8 01       	movw	r30, r16
    11d4:	01 90       	ld	r0, Z+
    11d6:	00 20       	and	r0, r0
    11d8:	e9 f7       	brne	.-6      	; 0x11d4 <showrem+0x220>
    11da:	31 97       	sbiw	r30, 0x01	; 1
    11dc:	e0 1b       	sub	r30, r16
    11de:	f1 0b       	sbc	r31, r17
    11e0:	c3 01       	movw	r24, r6
    11e2:	8e 1b       	sub	r24, r30
    11e4:	9f 0b       	sbc	r25, r31
    11e6:	e8 16       	cp	r14, r24
    11e8:	f9 06       	cpc	r15, r25
    11ea:	68 f3       	brcs	.-38     	; 0x11c6 <showrem+0x212>
			uart0_putc(' ');
		}
		uart0_putc('|');
    11ec:	8c e7       	ldi	r24, 0x7C	; 124
    11ee:	0e 94 e0 15 	call	0x2bc0	; 0x2bc0 <uart0_putc>
		
		//DESCRIPTION
		uart0_putc(' ');
    11f2:	80 e2       	ldi	r24, 0x20	; 32
    11f4:	0e 94 e0 15 	call	0x2bc0	; 0x2bc0 <uart0_putc>
		eeprom_read_block( (void*) desc_tmp , (void*) &(eeprom_ir_key_desc[i]), sizeof(eeprom_ir_key_desc[0]));
    11f8:	4a e0       	ldi	r20, 0x0A	; 10
    11fa:	50 e0       	ldi	r21, 0x00	; 0
    11fc:	6f 89       	ldd	r22, Y+23	; 0x17
    11fe:	78 8d       	ldd	r23, Y+24	; 0x18
    1200:	ce 01       	movw	r24, r28
    1202:	01 96       	adiw	r24, 0x01	; 1
    1204:	0e 94 45 1c 	call	0x388a	; 0x388a <eeprom_read_block>
		uart0_puts(desc_tmp);
    1208:	ce 01       	movw	r24, r28
    120a:	01 96       	adiw	r24, 0x01	; 1
    120c:	0e 94 f9 15 	call	0x2bf2	; 0x2bf2 <uart0_puts>
		uart0_puts_p(PSTR("\r\n"));
    1210:	82 e0       	ldi	r24, 0x02	; 2
    1212:	92 e0       	ldi	r25, 0x02	; 2
    1214:	0e 94 08 16 	call	0x2c10	; 0x2c10 <uart0_puts_p>
	const uint8_t column_width_prot = 9;
	const uint8_t column_width_ir_cmd = 6;
	const uint8_t column_width_ir_addr = 6;
	const uint8_t column_width_cmd = 13;
	
	for (int i = 0; i < ir_keyset_len ; i++){
    1218:	9f ef       	ldi	r25, 0xFF	; 255
    121a:	29 1a       	sub	r2, r25
    121c:	39 0a       	sbc	r3, r25
    121e:	af 89       	ldd	r26, Y+23	; 0x17
    1220:	b8 8d       	ldd	r27, Y+24	; 0x18
    1222:	1a 96       	adiw	r26, 0x0a	; 10
    1224:	b8 8f       	std	Y+24, r27	; 0x18
    1226:	af 8b       	std	Y+23, r26	; 0x17
    1228:	b1 e2       	ldi	r27, 0x21	; 33
    122a:	4b 0e       	add	r4, r27
    122c:	51 1c       	adc	r5, r1
    122e:	80 91 17 02 	lds	r24, 0x0217	; 0x800217 <ir_keyset_len>
    1232:	90 e0       	ldi	r25, 0x00	; 0
    1234:	28 16       	cp	r2, r24
    1236:	39 06       	cpc	r3, r25
    1238:	0c f4       	brge	.+2      	; 0x123c <showrem+0x288>
    123a:	0a cf       	rjmp	.-492    	; 0x1050 <showrem+0x9c>
		uart0_putc(' ');
		eeprom_read_block( (void*) desc_tmp , (void*) &(eeprom_ir_key_desc[i]), sizeof(eeprom_ir_key_desc[0]));
		uart0_puts(desc_tmp);
		uart0_puts_p(PSTR("\r\n"));
	}
}
    123c:	68 96       	adiw	r28, 0x18	; 24
    123e:	0f b6       	in	r0, 0x3f	; 63
    1240:	f8 94       	cli
    1242:	de bf       	out	0x3e, r29	; 62
    1244:	0f be       	out	0x3f, r0	; 63
    1246:	cd bf       	out	0x3d, r28	; 61
    1248:	df 91       	pop	r29
    124a:	cf 91       	pop	r28
    124c:	1f 91       	pop	r17
    124e:	0f 91       	pop	r16
    1250:	ff 90       	pop	r15
    1252:	ef 90       	pop	r14
    1254:	df 90       	pop	r13
    1256:	cf 90       	pop	r12
    1258:	bf 90       	pop	r11
    125a:	af 90       	pop	r10
    125c:	9f 90       	pop	r9
    125e:	8f 90       	pop	r8
    1260:	7f 90       	pop	r7
    1262:	6f 90       	pop	r6
    1264:	5f 90       	pop	r5
    1266:	4f 90       	pop	r4
    1268:	3f 90       	pop	r3
    126a:	2f 90       	pop	r2
    126c:	08 95       	ret

0000126e <set5vled>:

//Turns the 5V Power LED on or off
void set5vled(uint8_t argc, char *argv[]){
	if (argc > cmd_set[CMD_IDX_SET5VLED].arg_cnt){
    126e:	90 91 65 01 	lds	r25, 0x0165	; 0x800165 <cmd_set+0x5b>
    1272:	98 17       	cp	r25, r24
    1274:	28 f4       	brcc	.+10     	; 0x1280 <set5vled+0x12>
		uart0_puts_p(PSTR("Invalid Argument count!\r\n"));
    1276:	88 ee       	ldi	r24, 0xE8	; 232
    1278:	91 e0       	ldi	r25, 0x01	; 1
    127a:	0e 94 08 16 	call	0x2c10	; 0x2c10 <uart0_puts_p>
		return;
    127e:	08 95       	ret
	}
	
	if ( *argv[0] == '1'){
    1280:	db 01       	movw	r26, r22
    1282:	ed 91       	ld	r30, X+
    1284:	fc 91       	ld	r31, X
    1286:	80 81       	ld	r24, Z
    1288:	81 33       	cpi	r24, 0x31	; 49
    128a:	59 f4       	brne	.+22     	; 0x12a2 <set5vled+0x34>
		//Turn LED on
		PORTE |= (1 << PWR_5V_LED);
    128c:	71 9a       	sbi	0x0e, 1	; 14
		eeprom_update_byte(&eeprom_pwr_5v_led, 1);
    128e:	61 e0       	ldi	r22, 0x01	; 1
    1290:	82 e3       	ldi	r24, 0x32	; 50
    1292:	92 e0       	ldi	r25, 0x02	; 2
    1294:	0e 94 73 1c 	call	0x38e6	; 0x38e6 <eeprom_update_byte>
		uart0_puts_p(PSTR("5V LED ON!\r\n"));
    1298:	8b ed       	ldi	r24, 0xDB	; 219
    129a:	91 e0       	ldi	r25, 0x01	; 1
    129c:	0e 94 08 16 	call	0x2c10	; 0x2c10 <uart0_puts_p>
		return;
    12a0:	08 95       	ret
		
	} else if (*argv[0] == '0'){
    12a2:	80 33       	cpi	r24, 0x30	; 48
    12a4:	59 f4       	brne	.+22     	; 0x12bc <set5vled+0x4e>
		//Turn LED off
		PORTE &= ~(1 << PWR_5V_LED);
    12a6:	71 98       	cbi	0x0e, 1	; 14
		eeprom_update_byte(&eeprom_pwr_5v_led, 0);
    12a8:	60 e0       	ldi	r22, 0x00	; 0
    12aa:	82 e3       	ldi	r24, 0x32	; 50
    12ac:	92 e0       	ldi	r25, 0x02	; 2
    12ae:	0e 94 73 1c 	call	0x38e6	; 0x38e6 <eeprom_update_byte>
		uart0_puts_p(PSTR("5V LED OFF!\r\n"));
    12b2:	8d ec       	ldi	r24, 0xCD	; 205
    12b4:	91 e0       	ldi	r25, 0x01	; 1
    12b6:	0e 94 08 16 	call	0x2c10	; 0x2c10 <uart0_puts_p>
		return;
    12ba:	08 95       	ret
	}
	//Invalid argument
	uart0_puts_p(PSTR("Invalid Argument \r\n"));
    12bc:	89 eb       	ldi	r24, 0xB9	; 185
    12be:	91 e0       	ldi	r25, 0x01	; 1
    12c0:	0e 94 08 16 	call	0x2c10	; 0x2c10 <uart0_puts_p>
    12c4:	08 95       	ret

000012c6 <set3v3led>:
}

//Turns the 3.3V Power LED on or off
void set3v3led(uint8_t argc, char *argv[]){
	
	if (argc > cmd_set[CMD_IDX_SET3V3LED].arg_cnt){
    12c6:	90 91 72 01 	lds	r25, 0x0172	; 0x800172 <cmd_set+0x68>
    12ca:	98 17       	cp	r25, r24
    12cc:	28 f4       	brcc	.+10     	; 0x12d8 <set3v3led+0x12>
		uart0_puts_p(PSTR("Invalid Argument count!\r\n"));
    12ce:	8f e9       	ldi	r24, 0x9F	; 159
    12d0:	91 e0       	ldi	r25, 0x01	; 1
    12d2:	0e 94 08 16 	call	0x2c10	; 0x2c10 <uart0_puts_p>
		return;
    12d6:	08 95       	ret
	}

	if (  *argv[0] == '1'){
    12d8:	db 01       	movw	r26, r22
    12da:	ed 91       	ld	r30, X+
    12dc:	fc 91       	ld	r31, X
    12de:	80 81       	ld	r24, Z
    12e0:	81 33       	cpi	r24, 0x31	; 49
    12e2:	59 f4       	brne	.+22     	; 0x12fa <set3v3led+0x34>
		//Turn LED on
		PORTD |= (1 << PWR_3V3_LED);
    12e4:	5d 9a       	sbi	0x0b, 5	; 11
		eeprom_update_byte(&eeprom_pwr_3v3_led, 1);
    12e6:	61 e0       	ldi	r22, 0x01	; 1
    12e8:	81 e3       	ldi	r24, 0x31	; 49
    12ea:	92 e0       	ldi	r25, 0x02	; 2
    12ec:	0e 94 73 1c 	call	0x38e6	; 0x38e6 <eeprom_update_byte>
		uart0_puts_p(PSTR("3V3 LED ON!\r\n"));
    12f0:	81 e9       	ldi	r24, 0x91	; 145
    12f2:	91 e0       	ldi	r25, 0x01	; 1
    12f4:	0e 94 08 16 	call	0x2c10	; 0x2c10 <uart0_puts_p>
		return;
    12f8:	08 95       	ret
		} 
		else if ( *argv[0] == '0'){
    12fa:	80 33       	cpi	r24, 0x30	; 48
    12fc:	59 f4       	brne	.+22     	; 0x1314 <set3v3led+0x4e>
		//Turn LED off
		PORTD &= ~(1 << PWR_3V3_LED);
    12fe:	5d 98       	cbi	0x0b, 5	; 11
		eeprom_update_byte(&eeprom_pwr_3v3_led, 0);
    1300:	60 e0       	ldi	r22, 0x00	; 0
    1302:	81 e3       	ldi	r24, 0x31	; 49
    1304:	92 e0       	ldi	r25, 0x02	; 2
    1306:	0e 94 73 1c 	call	0x38e6	; 0x38e6 <eeprom_update_byte>
		uart0_puts_p(PSTR("3V3 LED OFF!\r\n"));
    130a:	82 e8       	ldi	r24, 0x82	; 130
    130c:	91 e0       	ldi	r25, 0x01	; 1
    130e:	0e 94 08 16 	call	0x2c10	; 0x2c10 <uart0_puts_p>
		return;
    1312:	08 95       	ret
	}
	//Invalid argument
	uart0_puts_p(PSTR("Invalid Argument \r\n"));
    1314:	8e e6       	ldi	r24, 0x6E	; 110
    1316:	91 e0       	ldi	r25, 0x01	; 1
    1318:	0e 94 08 16 	call	0x2c10	; 0x2c10 <uart0_puts_p>
    131c:	08 95       	ret

0000131e <setincdur>:

//Updates the inc_duration value (EEPROM and RAM)
void setincdur(uint8_t argc, char *argv[]){
		
	//Check if the correct number of arguments is present
	if (argc > cmd_set[CMD_IDX_SETINCDUR].arg_cnt){
    131e:	90 91 7f 01 	lds	r25, 0x017F	; 0x80017f <cmd_set+0x75>
    1322:	98 17       	cp	r25, r24
    1324:	28 f4       	brcc	.+10     	; 0x1330 <setincdur+0x12>
		uart0_puts_p(PSTR("Invalid Argument count!\r\n"));
    1326:	84 e5       	ldi	r24, 0x54	; 84
    1328:	91 e0       	ldi	r25, 0x01	; 1
    132a:	0e 94 08 16 	call	0x2c10	; 0x2c10 <uart0_puts_p>
		return;
    132e:	08 95       	ret
			uart0_puts_p(PSTR("\r\n"));
		}
	#endif
		
	//Get integer from argument vector (string)
	uint16_t inc_dur_tmp = atoi( argv[0] );
    1330:	fb 01       	movw	r30, r22
    1332:	80 81       	ld	r24, Z
    1334:	91 81       	ldd	r25, Z+1	; 0x01
    1336:	0e 94 eb 18 	call	0x31d6	; 0x31d6 <atoi>
		
	//Check Range (0...1400ms)
	if ( (inc_dur_tmp > 1400) || (inc_dur_tmp < 0) ){
    133a:	89 37       	cpi	r24, 0x79	; 121
    133c:	f5 e0       	ldi	r31, 0x05	; 5
    133e:	9f 07       	cpc	r25, r31
    1340:	28 f0       	brcs	.+10     	; 0x134c <setincdur+0x2e>
		uart0_puts_p(PSTR("Argument out of range!\r\n"));
    1342:	8b e3       	ldi	r24, 0x3B	; 59
    1344:	91 e0       	ldi	r25, 0x01	; 1
    1346:	0e 94 08 16 	call	0x2c10	; 0x2c10 <uart0_puts_p>
		//error_led(TRUE);
		return;
    134a:	08 95       	ret
	}
		
	//New inc_dur value is valid -> store to RAM, Timer Register and EEROM
	inc_dur = inc_dur_tmp;
    134c:	90 93 52 03 	sts	0x0352, r25	; 0x800352 <inc_dur+0x1>
    1350:	80 93 51 03 	sts	0x0351, r24	; 0x800351 <inc_dur>
	OCR3A = (uint16_t) TIMER_COMP_VAL(TIMER3_PRESCALER, inc_dur); //Update INC_DUR  Output Compare Timer Register
    1354:	bc 01       	movw	r22, r24
    1356:	80 e0       	ldi	r24, 0x00	; 0
    1358:	90 e0       	ldi	r25, 0x00	; 0
    135a:	0e 94 c9 16 	call	0x2d92	; 0x2d92 <__floatunsisf>
    135e:	20 e0       	ldi	r18, 0x00	; 0
    1360:	34 e2       	ldi	r19, 0x24	; 36
    1362:	44 ef       	ldi	r20, 0xF4	; 244
    1364:	5a e4       	ldi	r21, 0x4A	; 74
    1366:	0e 94 57 17 	call	0x2eae	; 0x2eae <__mulsf3>
    136a:	20 e0       	ldi	r18, 0x00	; 0
    136c:	30 e0       	ldi	r19, 0x00	; 0
    136e:	40 e8       	ldi	r20, 0x80	; 128
    1370:	5b e3       	ldi	r21, 0x3B	; 59
    1372:	0e 94 57 17 	call	0x2eae	; 0x2eae <__mulsf3>
    1376:	20 e0       	ldi	r18, 0x00	; 0
    1378:	30 e0       	ldi	r19, 0x00	; 0
    137a:	4a e7       	ldi	r20, 0x7A	; 122
    137c:	54 e4       	ldi	r21, 0x44	; 68
    137e:	0e 94 28 16 	call	0x2c50	; 0x2c50 <__divsf3>
    1382:	0e 94 9a 16 	call	0x2d34	; 0x2d34 <__fixunssfsi>
    1386:	70 93 99 00 	sts	0x0099, r23	; 0x800099 <__TEXT_REGION_LENGTH__+0x7e0099>
    138a:	60 93 98 00 	sts	0x0098, r22	; 0x800098 <__TEXT_REGION_LENGTH__+0x7e0098>
	eeprom_update_word( &eeprom_inc_dur, inc_dur);
    138e:	60 91 51 03 	lds	r22, 0x0351	; 0x800351 <inc_dur>
    1392:	70 91 52 03 	lds	r23, 0x0352	; 0x800352 <inc_dur+0x1>
    1396:	80 e0       	ldi	r24, 0x00	; 0
    1398:	90 e0       	ldi	r25, 0x00	; 0
    139a:	0e 94 85 1c 	call	0x390a	; 0x390a <eeprom_update_word>
		
	uart0_puts_p(PSTR("INC_DURATION value updated\r\n"));
    139e:	8e e1       	ldi	r24, 0x1E	; 30
    13a0:	91 e0       	ldi	r25, 0x01	; 1
    13a2:	0e 94 08 16 	call	0x2c10	; 0x2c10 <uart0_puts_p>
    13a6:	08 95       	ret

000013a8 <getincdur>:
}

void getincdur(uint8_t argc, char *argv[]){
    13a8:	cf 93       	push	r28
    13aa:	df 93       	push	r29
    13ac:	00 d0       	rcall	.+0      	; 0x13ae <getincdur+0x6>
    13ae:	00 d0       	rcall	.+0      	; 0x13b0 <getincdur+0x8>
    13b0:	1f 92       	push	r1
    13b2:	cd b7       	in	r28, 0x3d	; 61
    13b4:	de b7       	in	r29, 0x3e	; 62
	
	//Check if the correct number of arguments is present
	if (argc > cmd_set[CMD_IDX_SETINCDUR].arg_cnt){
    13b6:	90 91 7f 01 	lds	r25, 0x017F	; 0x80017f <cmd_set+0x75>
    13ba:	98 17       	cp	r25, r24
    13bc:	28 f4       	brcc	.+10     	; 0x13c8 <getincdur+0x20>
		uart0_puts_p(PSTR("Invalid Argument count!\r\n"));
    13be:	84 e0       	ldi	r24, 0x04	; 4
    13c0:	91 e0       	ldi	r25, 0x01	; 1
    13c2:	0e 94 08 16 	call	0x2c10	; 0x2c10 <uart0_puts_p>
    13c6:	26 c0       	rjmp	.+76     	; 0x1414 <getincdur+0x6c>
		return;
	}
		
	//Check if the values in RAM and EEPROM match
	if (eeprom_read_word(&eeprom_inc_dur) != inc_dur){
    13c8:	80 e0       	ldi	r24, 0x00	; 0
    13ca:	90 e0       	ldi	r25, 0x00	; 0
    13cc:	0e 94 5d 1c 	call	0x38ba	; 0x38ba <eeprom_read_word>
    13d0:	20 91 51 03 	lds	r18, 0x0351	; 0x800351 <inc_dur>
    13d4:	30 91 52 03 	lds	r19, 0x0352	; 0x800352 <inc_dur+0x1>
    13d8:	82 17       	cp	r24, r18
    13da:	93 07       	cpc	r25, r19
    13dc:	39 f0       	breq	.+14     	; 0x13ec <getincdur+0x44>
		uart0_puts_p(PSTR("ERROR: INC_DUR EEPROM RAM MISSMATCH!\r\n"));
    13de:	8d ed       	ldi	r24, 0xDD	; 221
    13e0:	90 e0       	ldi	r25, 0x00	; 0
    13e2:	0e 94 08 16 	call	0x2c10	; 0x2c10 <uart0_puts_p>
		error_led(TRUE);
    13e6:	81 e0       	ldi	r24, 0x01	; 1
    13e8:	0e 94 c4 05 	call	0xb88	; 0xb88 <error_led>
	}
		
	char buffer[5];
		
	//Return the value to the user
	uart0_puts_p(PSTR("INC_DURATION VALUE = "));
    13ec:	87 ec       	ldi	r24, 0xC7	; 199
    13ee:	90 e0       	ldi	r25, 0x00	; 0
    13f0:	0e 94 08 16 	call	0x2c10	; 0x2c10 <uart0_puts_p>
    13f4:	4a e0       	ldi	r20, 0x0A	; 10
    13f6:	be 01       	movw	r22, r28
    13f8:	6f 5f       	subi	r22, 0xFF	; 255
    13fa:	7f 4f       	sbci	r23, 0xFF	; 255
    13fc:	80 91 51 03 	lds	r24, 0x0351	; 0x800351 <inc_dur>
    1400:	90 91 52 03 	lds	r25, 0x0352	; 0x800352 <inc_dur+0x1>
    1404:	0e 94 77 19 	call	0x32ee	; 0x32ee <__itoa_ncheck>
	uart0_puts(itoa(inc_dur, buffer, 10));
    1408:	0e 94 f9 15 	call	0x2bf2	; 0x2bf2 <uart0_puts>
	uart0_puts_p(PSTR("ms\r\n"));
    140c:	82 ec       	ldi	r24, 0xC2	; 194
    140e:	90 e0       	ldi	r25, 0x00	; 0
    1410:	0e 94 08 16 	call	0x2c10	; 0x2c10 <uart0_puts_p>
    1414:	0f 90       	pop	r0
    1416:	0f 90       	pop	r0
    1418:	0f 90       	pop	r0
    141a:	0f 90       	pop	r0
    141c:	0f 90       	pop	r0
    141e:	df 91       	pop	r29
    1420:	cf 91       	pop	r28
    1422:	08 95       	ret

00001424 <cmd_parser>:
          Calls the matching command function with arguments
Input:    pointer to a char array
Returns:  0x00 no error occoured
		  0x01 error occoured
**************************************************************************/			 
uint8_t cmd_parser(char* cmd){
    1424:	cf 92       	push	r12
    1426:	df 92       	push	r13
    1428:	ef 92       	push	r14
    142a:	ff 92       	push	r15
    142c:	0f 93       	push	r16
    142e:	1f 93       	push	r17
    1430:	cf 93       	push	r28
    1432:	df 93       	push	r29
    1434:	cd b7       	in	r28, 0x3d	; 61
    1436:	de b7       	in	r29, 0x3e	; 62
    1438:	29 97       	sbiw	r28, 0x09	; 9
    143a:	0f b6       	in	r0, 0x3f	; 63
    143c:	f8 94       	cli
    143e:	de bf       	out	0x3e, r29	; 62
    1440:	0f be       	out	0x3f, r0	; 63
    1442:	cd bf       	out	0x3d, r28	; 61
    1444:	8c 01       	movw	r16, r24
					 
	command_ptr detc_cmd = NULL;
	char delim[] = CMD_SEPARATORS;		// " " and ","
    1446:	80 e2       	ldi	r24, 0x20	; 32
    1448:	9c e2       	ldi	r25, 0x2C	; 44
    144a:	9a 83       	std	Y+2, r25	; 0x02
    144c:	89 83       	std	Y+1, r24	; 0x01
    144e:	1b 82       	std	Y+3, r1	; 0x03
	char *argv[MAX_NUM_ARG];	//argument vector containing pointers to strings
	uint8_t tmp_strlen;

	//convert input string to lowercase
	//command interpreter should be case insensitive
	strlwr(cmd);
    1450:	c8 01       	movw	r24, r16
    1452:	0e 94 46 19 	call	0x328c	; 0x328c <strlwr>
					 
	//Receive the first token
	char *token = strtok(cmd, delim);
    1456:	be 01       	movw	r22, r28
    1458:	6f 5f       	subi	r22, 0xFF	; 255
    145a:	7f 4f       	sbci	r23, 0xFF	; 255
    145c:	c8 01       	movw	r24, r16
    145e:	0e 94 19 19 	call	0x3232	; 0x3232 <strtok>
    1462:	6c 01       	movw	r12, r24
    1464:	0d e0       	ldi	r16, 0x0D	; 13
    1466:	11 e0       	ldi	r17, 0x01	; 1
					 
	//The first token is the command word
	for (int i = 0; i < NUM_CMDS; i++)
    1468:	e1 2c       	mov	r14, r1
    146a:	f1 2c       	mov	r15, r1
	{
		//search for the input cmd string in available commands
		if ( strcmp( token, cmd_set[i].cmd_word ) == 0){
    146c:	b8 01       	movw	r22, r16
    146e:	c6 01       	movw	r24, r12
    1470:	0e 94 36 19 	call	0x326c	; 0x326c <strcmp>
    1474:	89 2b       	or	r24, r25
    1476:	59 f4       	brne	.+22     	; 0x148e <cmd_parser+0x6a>
			//cmd string matches a command
			detc_cmd = &cmd_set[i];
    1478:	2d e0       	ldi	r18, 0x0D	; 13
    147a:	2e 9d       	mul	r18, r14
    147c:	c0 01       	movw	r24, r0
    147e:	2f 9d       	mul	r18, r15
    1480:	90 0d       	add	r25, r0
    1482:	11 24       	eor	r1, r1
    1484:	86 5f       	subi	r24, 0xF6	; 246
    1486:	9e 4f       	sbci	r25, 0xFE	; 254
			break;
		}
	}
					 
	if (detc_cmd == NULL){
    1488:	89 2b       	or	r24, r25
    148a:	81 f4       	brne	.+32     	; 0x14ac <cmd_parser+0x88>
    148c:	09 c0       	rjmp	.+18     	; 0x14a0 <cmd_parser+0x7c>
					 
	//Receive the first token
	char *token = strtok(cmd, delim);
					 
	//The first token is the command word
	for (int i = 0; i < NUM_CMDS; i++)
    148e:	2f ef       	ldi	r18, 0xFF	; 255
    1490:	e2 1a       	sub	r14, r18
    1492:	f2 0a       	sbc	r15, r18
    1494:	03 5f       	subi	r16, 0xF3	; 243
    1496:	1f 4f       	sbci	r17, 0xFF	; 255
    1498:	3b e0       	ldi	r19, 0x0B	; 11
    149a:	e3 16       	cp	r14, r19
    149c:	f1 04       	cpc	r15, r1
    149e:	31 f7       	brne	.-52     	; 0x146c <cmd_parser+0x48>
		}
	}
					 
	if (detc_cmd == NULL){
		//No cmd string found
		uart0_puts_p(PSTR("Unknown command!\r\n"));
    14a0:	88 ea       	ldi	r24, 0xA8	; 168
    14a2:	96 e0       	ldi	r25, 0x06	; 6
    14a4:	0e 94 08 16 	call	0x2c10	; 0x2c10 <uart0_puts_p>
		return -1;
    14a8:	8f ef       	ldi	r24, 0xFF	; 255
    14aa:	9d c0       	rjmp	.+314    	; 0x15e6 <cmd_parser+0x1c2>
	//all other tokens are arguments
	//Collect all arguments in cmd
	argc = 0;
	err = 0;
					 
	token = strtok(NULL, delim);
    14ac:	be 01       	movw	r22, r28
    14ae:	6f 5f       	subi	r22, 0xFF	; 255
    14b0:	7f 4f       	sbci	r23, 0xFF	; 255
    14b2:	80 e0       	ldi	r24, 0x00	; 0
    14b4:	90 e0       	ldi	r25, 0x00	; 0
    14b6:	0e 94 19 19 	call	0x3232	; 0x3232 <strtok>
    14ba:	8c 01       	movw	r16, r24
	while(token != NULL)
    14bc:	89 2b       	or	r24, r25
    14be:	09 f4       	brne	.+2      	; 0x14c2 <cmd_parser+0x9e>
    14c0:	70 c0       	rjmp	.+224    	; 0x15a2 <cmd_parser+0x17e>
    14c2:	d1 2c       	mov	r13, r1
	{
		//ignore empty tokens (eg. 10, 11) the " " would be a empty token
		if( !(strcmp(token, "") == 0) ){
    14c4:	f8 01       	movw	r30, r16
    14c6:	80 81       	ld	r24, Z
    14c8:	88 23       	and	r24, r24
    14ca:	99 f1       	breq	.+102    	; 0x1532 <cmd_parser+0x10e>

			//Check number of arguments
			//if ((argc >= detc_cmd->arg_cnt) || (argc >= MAX_NUM_ARG)){
			if (argc >= MAX_NUM_ARG){
    14cc:	f2 e0       	ldi	r31, 0x02	; 2
    14ce:	fd 15       	cp	r31, r13
    14d0:	28 f4       	brcc	.+10     	; 0x14dc <cmd_parser+0xb8>
				uart0_puts_p(PSTR("The number of arguments exceeds the specified parser limit!\r\n"));
    14d2:	8a e6       	ldi	r24, 0x6A	; 106
    14d4:	96 e0       	ldi	r25, 0x06	; 6
    14d6:	0e 94 08 16 	call	0x2c10	; 0x2c10 <uart0_puts_p>
				err = 1;
				break;
    14da:	37 c0       	rjmp	.+110    	; 0x154a <cmd_parser+0x126>
			}
							 
			//Check argument string length
			tmp_strlen = strlen(token); // strlen is not including '\0'
    14dc:	f8 01       	movw	r30, r16
    14de:	01 90       	ld	r0, Z+
    14e0:	00 20       	and	r0, r0
    14e2:	e9 f7       	brne	.-6      	; 0x14de <cmd_parser+0xba>
    14e4:	31 97       	sbiw	r30, 0x01	; 1
    14e6:	cf 01       	movw	r24, r30
    14e8:	80 1b       	sub	r24, r16
    14ea:	91 0b       	sbc	r25, r17
			if ( tmp_strlen + 1 >= MAX_ARG_LEN ){
    14ec:	99 27       	eor	r25, r25
    14ee:	01 96       	adiw	r24, 0x01	; 1
    14f0:	8a 30       	cpi	r24, 0x0A	; 10
    14f2:	91 05       	cpc	r25, r1
    14f4:	2c f0       	brlt	.+10     	; 0x1500 <cmd_parser+0xdc>
				uart0_puts_p(PSTR("Max arg. string length exceeded!\r\n"));
    14f6:	87 e4       	ldi	r24, 0x47	; 71
    14f8:	96 e0       	ldi	r25, 0x06	; 6
    14fa:	0e 94 08 16 	call	0x2c10	; 0x2c10 <uart0_puts_p>
				err = 1;
				break;
    14fe:	25 c0       	rjmp	.+74     	; 0x154a <cmd_parser+0x126>
			}
							 
			//allocate memory for argument string
			argv[argc] = (char *) malloc(tmp_strlen  + 1);
    1500:	0e 94 ca 17 	call	0x2f94	; 0x2f94 <malloc>
    1504:	ed 2d       	mov	r30, r13
    1506:	f0 e0       	ldi	r31, 0x00	; 0
    1508:	ee 0f       	add	r30, r30
    150a:	ff 1f       	adc	r31, r31
    150c:	21 e0       	ldi	r18, 0x01	; 1
    150e:	30 e0       	ldi	r19, 0x00	; 0
    1510:	2c 0f       	add	r18, r28
    1512:	3d 1f       	adc	r19, r29
    1514:	e2 0f       	add	r30, r18
    1516:	f3 1f       	adc	r31, r19
    1518:	94 83       	std	Z+4, r25	; 0x04
    151a:	83 83       	std	Z+3, r24	; 0x03
							 
			if (argv[argc] == NULL){
    151c:	00 97       	sbiw	r24, 0x00	; 0
    151e:	29 f4       	brne	.+10     	; 0x152a <cmd_parser+0x106>
				//Memory allocation failed
				uart0_puts_p(PSTR("Memory allocation failed!\r\n"));
    1520:	8b e2       	ldi	r24, 0x2B	; 43
    1522:	96 e0       	ldi	r25, 0x06	; 6
    1524:	0e 94 08 16 	call	0x2c10	; 0x2c10 <uart0_puts_p>
				err = 1;
				break;
    1528:	10 c0       	rjmp	.+32     	; 0x154a <cmd_parser+0x126>
			}
							 
			//copy the token to the argument vector
			strcpy(argv[argc] , token);
    152a:	b8 01       	movw	r22, r16
    152c:	0e 94 3f 19 	call	0x327e	; 0x327e <strcpy>
							 
			//increase argument counter
			argc++;
    1530:	d3 94       	inc	r13
		}
		//Fetch the next token to process
		token = strtok(NULL, delim);
    1532:	be 01       	movw	r22, r28
    1534:	6f 5f       	subi	r22, 0xFF	; 255
    1536:	7f 4f       	sbci	r23, 0xFF	; 255
    1538:	80 e0       	ldi	r24, 0x00	; 0
    153a:	90 e0       	ldi	r25, 0x00	; 0
    153c:	0e 94 19 19 	call	0x3232	; 0x3232 <strtok>
    1540:	8c 01       	movw	r16, r24
	//Collect all arguments in cmd
	argc = 0;
	err = 0;
					 
	token = strtok(NULL, delim);
	while(token != NULL)
    1542:	89 2b       	or	r24, r25
    1544:	09 f0       	breq	.+2      	; 0x1548 <cmd_parser+0x124>
    1546:	be cf       	rjmp	.-132    	; 0x14c4 <cmd_parser+0xa0>
    1548:	2d c0       	rjmp	.+90     	; 0x15a4 <cmd_parser+0x180>
	//do not print a error message if the err flag is already set
	//if ( (argc != detc_cmd->arg_cnt) && (err == 0) ){
		
	//Check if required arguments are present
	//more arguments are OK
	if ( (argc < detc_cmd->arg_cnt) && (err == 0)){
    154a:	8d e0       	ldi	r24, 0x0D	; 13
    154c:	8e 9d       	mul	r24, r14
    154e:	f0 01       	movw	r30, r0
    1550:	8f 9d       	mul	r24, r15
    1552:	f0 0d       	add	r31, r0
    1554:	11 24       	eor	r1, r1
    1556:	e6 5f       	subi	r30, 0xF6	; 246
    1558:	fe 4f       	sbci	r31, 0xFE	; 254
    155a:	80 81       	ld	r24, Z
    155c:	d8 16       	cp	r13, r24
    155e:	70 f1       	brcs	.+92     	; 0x15bc <cmd_parser+0x198>
    1560:	cc 24       	eor	r12, r12
    1562:	c3 94       	inc	r12
    1564:	05 c0       	rjmp	.+10     	; 0x1570 <cmd_parser+0x14c>
		uart0_puts_p(PSTR("Required arguments not present!\r\n"));
    1566:	89 e0       	ldi	r24, 0x09	; 9
    1568:	96 e0       	ldi	r25, 0x06	; 6
    156a:	0e 94 08 16 	call	0x2c10	; 0x2c10 <uart0_puts_p>
    156e:	26 c0       	rjmp	.+76     	; 0x15bc <cmd_parser+0x198>
		//If all went fine call the command function and pass the arguments
		detc_cmd->cmd_fun_ptr(argc, argv);
	}

	//free allocated memory
	for (int i = 0; i < argc; i++){
    1570:	dd 20       	and	r13, r13
    1572:	91 f0       	breq	.+36     	; 0x1598 <cmd_parser+0x174>
    1574:	8e 01       	movw	r16, r28
    1576:	0c 5f       	subi	r16, 0xFC	; 252
    1578:	1f 4f       	sbci	r17, 0xFF	; 255
    157a:	ed 2c       	mov	r14, r13
    157c:	f1 2c       	mov	r15, r1
    157e:	ee 0c       	add	r14, r14
    1580:	ff 1c       	adc	r15, r15
    1582:	e0 0e       	add	r14, r16
    1584:	f1 1e       	adc	r15, r17
		free(argv[i]);
    1586:	f8 01       	movw	r30, r16
    1588:	81 91       	ld	r24, Z+
    158a:	91 91       	ld	r25, Z+
    158c:	8f 01       	movw	r16, r30
    158e:	0e 94 62 18 	call	0x30c4	; 0x30c4 <free>
		//If all went fine call the command function and pass the arguments
		detc_cmd->cmd_fun_ptr(argc, argv);
	}

	//free allocated memory
	for (int i = 0; i < argc; i++){
    1592:	0e 15       	cp	r16, r14
    1594:	1f 05       	cpc	r17, r15
    1596:	b9 f7       	brne	.-18     	; 0x1586 <cmd_parser+0x162>
	}
					 
	if (detc_cmd == NULL){
		//No cmd string found
		uart0_puts_p(PSTR("Unknown command!\r\n"));
		return -1;
    1598:	81 e0       	ldi	r24, 0x01	; 1
    159a:	c1 10       	cpse	r12, r1
    159c:	24 c0       	rjmp	.+72     	; 0x15e6 <cmd_parser+0x1c2>
    159e:	80 e0       	ldi	r24, 0x00	; 0
    15a0:	22 c0       	rjmp	.+68     	; 0x15e6 <cmd_parser+0x1c2>
	}
					 
	//all other tokens are arguments
	//Collect all arguments in cmd
	argc = 0;
    15a2:	d1 2c       	mov	r13, r1
	//do not print a error message if the err flag is already set
	//if ( (argc != detc_cmd->arg_cnt) && (err == 0) ){
		
	//Check if required arguments are present
	//more arguments are OK
	if ( (argc < detc_cmd->arg_cnt) && (err == 0)){
    15a4:	8d e0       	ldi	r24, 0x0D	; 13
    15a6:	8e 9d       	mul	r24, r14
    15a8:	f0 01       	movw	r30, r0
    15aa:	8f 9d       	mul	r24, r15
    15ac:	f0 0d       	add	r31, r0
    15ae:	11 24       	eor	r1, r1
    15b0:	e6 5f       	subi	r30, 0xF6	; 246
    15b2:	fe 4f       	sbci	r31, 0xFE	; 254
    15b4:	80 81       	ld	r24, Z
    15b6:	d8 16       	cp	r13, r24
    15b8:	20 f4       	brcc	.+8      	; 0x15c2 <cmd_parser+0x19e>
    15ba:	d5 cf       	rjmp	.-86     	; 0x1566 <cmd_parser+0x142>
		err=1;
	}
					 
	if (!err){
		//If all went fine call the command function and pass the arguments
		detc_cmd->cmd_fun_ptr(argc, argv);
    15bc:	cc 24       	eor	r12, r12
    15be:	c3 94       	inc	r12
    15c0:	d7 cf       	rjmp	.-82     	; 0x1570 <cmd_parser+0x14c>
    15c2:	8d e0       	ldi	r24, 0x0D	; 13
    15c4:	8e 9d       	mul	r24, r14
    15c6:	f0 01       	movw	r30, r0
    15c8:	8f 9d       	mul	r24, r15
    15ca:	f0 0d       	add	r31, r0
    15cc:	11 24       	eor	r1, r1
    15ce:	e6 5f       	subi	r30, 0xF6	; 246
    15d0:	fe 4f       	sbci	r31, 0xFE	; 254
    15d2:	01 80       	ldd	r0, Z+1	; 0x01
    15d4:	f2 81       	ldd	r31, Z+2	; 0x02
    15d6:	e0 2d       	mov	r30, r0
    15d8:	be 01       	movw	r22, r28
    15da:	6c 5f       	subi	r22, 0xFC	; 252
    15dc:	7f 4f       	sbci	r23, 0xFF	; 255
    15de:	8d 2d       	mov	r24, r13
    15e0:	09 95       	icall
    15e2:	c1 2c       	mov	r12, r1
    15e4:	c5 cf       	rjmp	.-118    	; 0x1570 <cmd_parser+0x14c>
		free(argv[i]);
	}
					 
	if (err) return 1;
	else return 0;
};
    15e6:	29 96       	adiw	r28, 0x09	; 9
    15e8:	0f b6       	in	r0, 0x3f	; 63
    15ea:	f8 94       	cli
    15ec:	de bf       	out	0x3e, r29	; 62
    15ee:	0f be       	out	0x3f, r0	; 63
    15f0:	cd bf       	out	0x3d, r28	; 61
    15f2:	df 91       	pop	r29
    15f4:	cf 91       	pop	r28
    15f6:	1f 91       	pop	r17
    15f8:	0f 91       	pop	r16
    15fa:	ff 90       	pop	r15
    15fc:	ef 90       	pop	r14
    15fe:	df 90       	pop	r13
    1600:	cf 90       	pop	r12
    1602:	08 95       	ret

00001604 <peek_volctrl>:
Purpose:  checks if the line buffer is a volup, voldown or setvol command
Input:    char* to lne buffer
Returns:  CMD_IDX_VOLUP, CMD_IDX_VOLDOWN, CMD_IDX_SETVOL for valid commands 
		  or 0xFF if none of the volctrl commands was found
**************************************************************************/
uint8_t peek_volctrl(char* buffer){
    1604:	cf 92       	push	r12
    1606:	df 92       	push	r13
    1608:	ef 92       	push	r14
    160a:	ff 92       	push	r15
    160c:	0f 93       	push	r16
    160e:	1f 93       	push	r17
    1610:	cf 93       	push	r28
    1612:	df 93       	push	r29
    1614:	00 d0       	rcall	.+0      	; 0x1616 <peek_volctrl+0x12>
    1616:	1f 92       	push	r1
    1618:	cd b7       	in	r28, 0x3d	; 61
    161a:	de b7       	in	r29, 0x3e	; 62
	
	uint8_t detc_cmd_idx = 0xFF;
	char delim[] = CMD_SEPARATORS;		// " " and ","
    161c:	20 e2       	ldi	r18, 0x20	; 32
    161e:	3c e2       	ldi	r19, 0x2C	; 44
    1620:	3a 83       	std	Y+2, r19	; 0x02
    1622:	29 83       	std	Y+1, r18	; 0x01
    1624:	1b 82       	std	Y+3, r1	; 0x03
	
	uint8_t argc = 0;				//Recognized argument count

	uint8_t tmp_strlen = strlen(buffer);
    1626:	fc 01       	movw	r30, r24
    1628:	01 90       	ld	r0, Z+
    162a:	00 20       	and	r0, r0
    162c:	e9 f7       	brne	.-6      	; 0x1628 <peek_volctrl+0x24>
    162e:	31 97       	sbiw	r30, 0x01	; 1
	
	//Empty string
	if(tmp_strlen == 0) {
    1630:	e8 17       	cp	r30, r24
    1632:	09 f4       	brne	.+2      	; 0x1636 <peek_volctrl+0x32>
    1634:	51 c0       	rjmp	.+162    	; 0x16d8 <peek_volctrl+0xd4>
		return 0xFF;
	}
	
	
	//Receive the first token
	char *token = strtok(buffer, delim);
    1636:	be 01       	movw	r22, r28
    1638:	6f 5f       	subi	r22, 0xFF	; 255
    163a:	7f 4f       	sbci	r23, 0xFF	; 255
    163c:	0e 94 19 19 	call	0x3232	; 0x3232 <strtok>
    1640:	6c 01       	movw	r12, r24
    1642:	0f 2e       	mov	r0, r31
    1644:	fd e0       	ldi	r31, 0x0D	; 13
    1646:	ef 2e       	mov	r14, r31
    1648:	f1 e0       	ldi	r31, 0x01	; 1
    164a:	ff 2e       	mov	r15, r31
    164c:	f0 2d       	mov	r31, r0
	
	//The first token is the command word
	for (int i = 0; i < NUM_CMDS; i++)
    164e:	00 e0       	ldi	r16, 0x00	; 0
    1650:	10 e0       	ldi	r17, 0x00	; 0
	{
		//search for the input cmd string in available commands
		if ( strcmp( token, cmd_set[i].cmd_word ) == 0){
    1652:	b7 01       	movw	r22, r14
    1654:	c6 01       	movw	r24, r12
    1656:	0e 94 36 19 	call	0x326c	; 0x326c <strcmp>
    165a:	89 2b       	or	r24, r25
    165c:	19 f4       	brne	.+6      	; 0x1664 <peek_volctrl+0x60>
			detc_cmd_idx = i;
			break;
		}
	}
	
	if (detc_cmd_idx == 0xFF){
    165e:	0f 3f       	cpi	r16, 0xFF	; 255
    1660:	59 f4       	brne	.+22     	; 0x1678 <peek_volctrl+0x74>
    1662:	3c c0       	rjmp	.+120    	; 0x16dc <peek_volctrl+0xd8>
	
	//Receive the first token
	char *token = strtok(buffer, delim);
	
	//The first token is the command word
	for (int i = 0; i < NUM_CMDS; i++)
    1664:	0f 5f       	subi	r16, 0xFF	; 255
    1666:	1f 4f       	sbci	r17, 0xFF	; 255
    1668:	8d e0       	ldi	r24, 0x0D	; 13
    166a:	e8 0e       	add	r14, r24
    166c:	f1 1c       	adc	r15, r1
    166e:	0b 30       	cpi	r16, 0x0B	; 11
    1670:	11 05       	cpc	r17, r1
    1672:	79 f7       	brne	.-34     	; 0x1652 <peek_volctrl+0x4e>
		}
	}
	
	if (detc_cmd_idx == 0xFF){
		//No cmd string found
		return 0xFF;
    1674:	8f ef       	ldi	r24, 0xFF	; 255
    1676:	3d c0       	rjmp	.+122    	; 0x16f2 <peek_volctrl+0xee>
	}
	
	//Check if volup or voldown was found 
	if ( (detc_cmd_idx == CMD_IDX_VOLUP) || (detc_cmd_idx == CMD_IDX_VOLDOWN)){
    1678:	02 30       	cpi	r16, 0x02	; 2
    167a:	90 f1       	brcs	.+100    	; 0x16e0 <peek_volctrl+0xdc>
		//Volup or voldown was found -> no arguments
		return detc_cmd_idx;
	}
	
	if (detc_cmd_idx == CMD_IDX_SETVOL){
    167c:	02 30       	cpi	r16, 0x02	; 2
    167e:	91 f5       	brne	.+100    	; 0x16e4 <peek_volctrl+0xe0>
		//Setvol cmd -> Get the token
		token = strtok(NULL, delim);
    1680:	be 01       	movw	r22, r28
    1682:	6f 5f       	subi	r22, 0xFF	; 255
    1684:	7f 4f       	sbci	r23, 0xFF	; 255
    1686:	80 e0       	ldi	r24, 0x00	; 0
    1688:	90 e0       	ldi	r25, 0x00	; 0
    168a:	0e 94 19 19 	call	0x3232	; 0x3232 <strtok>
		
		while(token != NULL)
    168e:	00 97       	sbiw	r24, 0x00	; 0
    1690:	e1 f0       	breq	.+56     	; 0x16ca <peek_volctrl+0xc6>
    1692:	10 e0       	ldi	r17, 0x00	; 0
		{
			//ignore empty tokens (eg. 10, 11) the " " would be a empty token
			if( !(strcmp(token, "") == 0) ){
    1694:	fc 01       	movw	r30, r24
    1696:	20 81       	ld	r18, Z
    1698:	22 23       	and	r18, r18
    169a:	69 f0       	breq	.+26     	; 0x16b6 <peek_volctrl+0xb2>
				//Check number of arguments
				if (argc >= MAX_NUM_ARG){
    169c:	13 30       	cpi	r17, 0x03	; 3
    169e:	20 f5       	brcc	.+72     	; 0x16e8 <peek_volctrl+0xe4>
					return 0xFF;
				}
							
				//Check argument string length
				tmp_strlen = strlen(token); // strlen is not including '\0'
    16a0:	01 90       	ld	r0, Z+
    16a2:	00 20       	and	r0, r0
    16a4:	e9 f7       	brne	.-6      	; 0x16a0 <peek_volctrl+0x9c>
    16a6:	31 97       	sbiw	r30, 0x01	; 1
    16a8:	e8 1b       	sub	r30, r24
    16aa:	f9 0b       	sbc	r31, r25
				if ( tmp_strlen + 1 >= MAX_ARG_LEN ){
    16ac:	ff 27       	eor	r31, r31
    16ae:	31 96       	adiw	r30, 0x01	; 1
    16b0:	3a 97       	sbiw	r30, 0x0a	; 10
    16b2:	e4 f4       	brge	.+56     	; 0x16ec <peek_volctrl+0xe8>
					return 0xFF;
				}
				
				//increase argument counter
				argc++;
    16b4:	1f 5f       	subi	r17, 0xFF	; 255
			}
			//Fetch the next token to process
			token = strtok(NULL, delim);
    16b6:	be 01       	movw	r22, r28
    16b8:	6f 5f       	subi	r22, 0xFF	; 255
    16ba:	7f 4f       	sbci	r23, 0xFF	; 255
    16bc:	80 e0       	ldi	r24, 0x00	; 0
    16be:	90 e0       	ldi	r25, 0x00	; 0
    16c0:	0e 94 19 19 	call	0x3232	; 0x3232 <strtok>
	
	if (detc_cmd_idx == CMD_IDX_SETVOL){
		//Setvol cmd -> Get the token
		token = strtok(NULL, delim);
		
		while(token != NULL)
    16c4:	00 97       	sbiw	r24, 0x00	; 0
    16c6:	31 f7       	brne	.-52     	; 0x1694 <peek_volctrl+0x90>
    16c8:	01 c0       	rjmp	.+2      	; 0x16cc <peek_volctrl+0xc8>
uint8_t peek_volctrl(char* buffer){
	
	uint8_t detc_cmd_idx = 0xFF;
	char delim[] = CMD_SEPARATORS;		// " " and ","
	
	uint8_t argc = 0;				//Recognized argument count
    16ca:	10 e0       	ldi	r17, 0x00	; 0
			}
			//Fetch the next token to process
			token = strtok(NULL, delim);
		}
		
		if (argc == cmd_set[CMD_IDX_SETVOL].arg_cnt){
    16cc:	80 91 24 01 	lds	r24, 0x0124	; 0x800124 <cmd_set+0x1a>
    16d0:	81 17       	cp	r24, r17
    16d2:	71 f0       	breq	.+28     	; 0x16f0 <peek_volctrl+0xec>
			return CMD_IDX_SETVOL;
		}
	}
	//volup or voldown was not found
	return 0xFF;
    16d4:	8f ef       	ldi	r24, 0xFF	; 255
    16d6:	0d c0       	rjmp	.+26     	; 0x16f2 <peek_volctrl+0xee>

	uint8_t tmp_strlen = strlen(buffer);
	
	//Empty string
	if(tmp_strlen == 0) {
		return 0xFF;
    16d8:	8f ef       	ldi	r24, 0xFF	; 255
    16da:	0b c0       	rjmp	.+22     	; 0x16f2 <peek_volctrl+0xee>
		}
	}
	
	if (detc_cmd_idx == 0xFF){
		//No cmd string found
		return 0xFF;
    16dc:	8f ef       	ldi	r24, 0xFF	; 255
    16de:	09 c0       	rjmp	.+18     	; 0x16f2 <peek_volctrl+0xee>
	for (int i = 0; i < NUM_CMDS; i++)
	{
		//search for the input cmd string in available commands
		if ( strcmp( token, cmd_set[i].cmd_word ) == 0){
			//cmd string matches a command
			detc_cmd_idx = i;
    16e0:	80 2f       	mov	r24, r16
    16e2:	07 c0       	rjmp	.+14     	; 0x16f2 <peek_volctrl+0xee>
		if (argc == cmd_set[CMD_IDX_SETVOL].arg_cnt){
			return CMD_IDX_SETVOL;
		}
	}
	//volup or voldown was not found
	return 0xFF;
    16e4:	8f ef       	ldi	r24, 0xFF	; 255
    16e6:	05 c0       	rjmp	.+10     	; 0x16f2 <peek_volctrl+0xee>
		{
			//ignore empty tokens (eg. 10, 11) the " " would be a empty token
			if( !(strcmp(token, "") == 0) ){
				//Check number of arguments
				if (argc >= MAX_NUM_ARG){
					return 0xFF;
    16e8:	8f ef       	ldi	r24, 0xFF	; 255
    16ea:	03 c0       	rjmp	.+6      	; 0x16f2 <peek_volctrl+0xee>
				}
							
				//Check argument string length
				tmp_strlen = strlen(token); // strlen is not including '\0'
				if ( tmp_strlen + 1 >= MAX_ARG_LEN ){
					return 0xFF;
    16ec:	8f ef       	ldi	r24, 0xFF	; 255
    16ee:	01 c0       	rjmp	.+2      	; 0x16f2 <peek_volctrl+0xee>
			//Fetch the next token to process
			token = strtok(NULL, delim);
		}
		
		if (argc == cmd_set[CMD_IDX_SETVOL].arg_cnt){
			return CMD_IDX_SETVOL;
    16f0:	82 e0       	ldi	r24, 0x02	; 2
		}
	}
	//volup or voldown was not found
	return 0xFF;
}
    16f2:	0f 90       	pop	r0
    16f4:	0f 90       	pop	r0
    16f6:	0f 90       	pop	r0
    16f8:	df 91       	pop	r29
    16fa:	cf 91       	pop	r28
    16fc:	1f 91       	pop	r17
    16fe:	0f 91       	pop	r16
    1700:	ff 90       	pop	r15
    1702:	ef 90       	pop	r14
    1704:	df 90       	pop	r13
    1706:	cf 90       	pop	r12
    1708:	08 95       	ret

0000170a <uart0_errchk>:
Input:    None
Returns:  boolean false if no error was found; true if an error occured
**************************************************************************/
uint16_t uart0_errchk(uint16_t rec_val){
	
	if (rec_val & UART_FRAME_ERROR ){
    170a:	93 ff       	sbrs	r25, 3
    170c:	07 c0       	rjmp	.+14     	; 0x171c <uart0_errchk+0x12>
		uart0_puts_p(PSTR("UART_FRAME_ERROR occurred!"));
    170e:	82 ed       	ldi	r24, 0xD2	; 210
    1710:	95 e0       	ldi	r25, 0x05	; 5
    1712:	0e 94 08 16 	call	0x2c10	; 0x2c10 <uart0_puts_p>
		return UART_FRAME_ERROR;
    1716:	20 e0       	ldi	r18, 0x00	; 0
    1718:	38 e0       	ldi	r19, 0x08	; 8
    171a:	1d c0       	rjmp	.+58     	; 0x1756 <uart0_errchk+0x4c>
	}
	else if (rec_val & UART_OVERRUN_ERROR){
    171c:	92 ff       	sbrs	r25, 2
    171e:	07 c0       	rjmp	.+14     	; 0x172e <uart0_errchk+0x24>
		uart0_puts_p(PSTR("UART_OVERRUN_ERROR occurred!"));
    1720:	85 eb       	ldi	r24, 0xB5	; 181
    1722:	95 e0       	ldi	r25, 0x05	; 5
    1724:	0e 94 08 16 	call	0x2c10	; 0x2c10 <uart0_puts_p>
		return UART_OVERRUN_ERROR;
    1728:	20 e0       	ldi	r18, 0x00	; 0
    172a:	34 e0       	ldi	r19, 0x04	; 4
    172c:	14 c0       	rjmp	.+40     	; 0x1756 <uart0_errchk+0x4c>
	}
	else if (rec_val & UART_BUFFER_OVERFLOW){
    172e:	91 ff       	sbrs	r25, 1
    1730:	07 c0       	rjmp	.+14     	; 0x1740 <uart0_errchk+0x36>
		uart0_puts_p(PSTR("UART_BUFFER_OVERFLOW occurred!"));
    1732:	86 e9       	ldi	r24, 0x96	; 150
    1734:	95 e0       	ldi	r25, 0x05	; 5
    1736:	0e 94 08 16 	call	0x2c10	; 0x2c10 <uart0_puts_p>
		return UART_BUFFER_OVERFLOW;
    173a:	20 e0       	ldi	r18, 0x00	; 0
    173c:	32 e0       	ldi	r19, 0x02	; 2
    173e:	0b c0       	rjmp	.+22     	; 0x1756 <uart0_errchk+0x4c>
	}
	else if (rec_val & UART_NO_DATA){
    1740:	9c 01       	movw	r18, r24
    1742:	22 27       	eor	r18, r18
    1744:	31 70       	andi	r19, 0x01	; 1
    1746:	90 ff       	sbrs	r25, 0
    1748:	06 c0       	rjmp	.+12     	; 0x1756 <uart0_errchk+0x4c>
		uart0_puts_p(PSTR("UART_NO_DATA occurred!"));
    174a:	8f e7       	ldi	r24, 0x7F	; 127
    174c:	95 e0       	ldi	r25, 0x05	; 5
    174e:	0e 94 08 16 	call	0x2c10	; 0x2c10 <uart0_puts_p>
		return UART_NO_DATA;
    1752:	20 e0       	ldi	r18, 0x00	; 0
    1754:	31 e0       	ldi	r19, 0x01	; 1
	}
	return 0;
    1756:	c9 01       	movw	r24, r18
    1758:	08 95       	ret

0000175a <uart0_getln>:
Returns:  0x01 no bytes available
		  0x00 one line was read successfully
		  0xXX02 UART transmit Error occurred (Upper 16 Bytes are the UART error code)
**************************************************************************/
uint16_t uart0_getln(char* uart0_line_buf)
{
    175a:	ff 92       	push	r15
    175c:	0f 93       	push	r16
    175e:	1f 93       	push	r17
    1760:	cf 93       	push	r28
    1762:	df 93       	push	r29
    1764:	ec 01       	movw	r28, r24
	if (uart0_available() > 0){
    1766:	0e 94 1a 16 	call	0x2c34	; 0x2c34 <uart0_available>
    176a:	89 2b       	or	r24, r25
    176c:	09 f4       	brne	.+2      	; 0x1770 <uart0_getln+0x16>
    176e:	47 c0       	rjmp	.+142    	; 0x17fe <uart0_getln+0xa4>
		static uint8_t uart0_line_buf_len = 0;
		
		uint16_t rec_val;		//received value
		char rec_c;				//received character
		
		rec_val = uart0_getc();
    1770:	0e 94 c0 15 	call	0x2b80	; 0x2b80 <uart0_getc>
    1774:	18 2f       	mov	r17, r24
    1776:	f9 2e       	mov	r15, r25
		rec_c = (char)rec_val;	//lower 8 bit
	
		
		//Check for receive errors
		if ( uart0_errchk(rec_val) ){
    1778:	0e 94 85 0b 	call	0x170a	; 0x170a <uart0_errchk>
    177c:	00 97       	sbiw	r24, 0x00	; 0
    177e:	31 f0       	breq	.+12     	; 0x178c <uart0_getln+0x32>
			return ( uart0_errchk(rec_val) | GET_LN_REC_ERR);
    1780:	81 2f       	mov	r24, r17
    1782:	9f 2d       	mov	r25, r15
    1784:	0e 94 85 0b 	call	0x170a	; 0x170a <uart0_errchk>
    1788:	82 60       	ori	r24, 0x02	; 2
    178a:	3e c0       	rjmp	.+124    	; 0x1808 <uart0_getln+0xae>
		}


		if ( rec_c == LINE_DELIMITER ){
    178c:	1d 30       	cpi	r17, 0x0D	; 13
    178e:	49 f4       	brne	.+18     	; 0x17a2 <uart0_getln+0x48>
			//EOL reached
			if (uart0_line_buf_len != 0){
    1790:	20 91 ac 01 	lds	r18, 0x01AC	; 0x8001ac <uart0_line_buf_len.2604>
    1794:	22 23       	and	r18, r18
    1796:	19 f0       	breq	.+6      	; 0x179e <uart0_getln+0x44>
				//reset buffer index
				uart0_line_buf_len = 0;
    1798:	10 92 ac 01 	sts	0x01AC, r1	; 0x8001ac <uart0_line_buf_len.2604>
    179c:	35 c0       	rjmp	.+106    	; 0x1808 <uart0_getln+0xae>
			}
			else{
				//first character was a delimiter -> set terminator to first buffer index
				//(empty string)
				uart0_line_buf[uart0_line_buf_len] = 0;
    179e:	18 82       	st	Y, r1
    17a0:	33 c0       	rjmp	.+102    	; 0x1808 <uart0_getln+0xae>
		}
		else {
			//EOL not reached 
			
			//Handle backspace and "DEL" (=127)
			if ( rec_c == '\b' || rec_c == 127 ){
    17a2:	18 30       	cpi	r17, 0x08	; 8
    17a4:	11 f0       	breq	.+4      	; 0x17aa <uart0_getln+0x50>
    17a6:	1f 37       	cpi	r17, 0x7F	; 127
    17a8:	79 f4       	brne	.+30     	; 0x17c8 <uart0_getln+0x6e>
				//delete the most recent character
				//Prevent buf len from overflow
				if (uart0_line_buf_len > 0) uart0_line_buf_len--;
    17aa:	80 91 ac 01 	lds	r24, 0x01AC	; 0x8001ac <uart0_line_buf_len.2604>
    17ae:	88 23       	and	r24, r24
    17b0:	19 f0       	breq	.+6      	; 0x17b8 <uart0_getln+0x5e>
    17b2:	81 50       	subi	r24, 0x01	; 1
    17b4:	80 93 ac 01 	sts	0x01AC, r24	; 0x8001ac <uart0_line_buf_len.2604>
				uart0_line_buf[uart0_line_buf_len] = 0;
    17b8:	80 91 ac 01 	lds	r24, 0x01AC	; 0x8001ac <uart0_line_buf_len.2604>
    17bc:	c8 0f       	add	r28, r24
    17be:	d1 1d       	adc	r29, r1
    17c0:	18 82       	st	Y, r1
					return GET_LN_REC_ERR;
				}
			}
		}
	}
	return GET_LN_NO_BYTES;
    17c2:	81 e0       	ldi	r24, 0x01	; 1
    17c4:	90 e0       	ldi	r25, 0x00	; 0
			//Handle backspace and "DEL" (=127)
			if ( rec_c == '\b' || rec_c == 127 ){
				//delete the most recent character
				//Prevent buf len from overflow
				if (uart0_line_buf_len > 0) uart0_line_buf_len--;
				uart0_line_buf[uart0_line_buf_len] = 0;
    17c6:	20 c0       	rjmp	.+64     	; 0x1808 <uart0_getln+0xae>
			}
			else if (rec_c == '\n'){
    17c8:	1a 30       	cpi	r17, 0x0A	; 10
    17ca:	e1 f0       	breq	.+56     	; 0x1804 <uart0_getln+0xaa>
				//Ignore Characters. E.g. '\n' if the EOL is "\r\n" in case of a telnet connection
				
			}
			else {
				//-> store to buffer
				if(uart0_line_buf_len < LINE_BUF_SIZE){
    17cc:	80 91 ac 01 	lds	r24, 0x01AC	; 0x8001ac <uart0_line_buf_len.2604>
    17d0:	88 32       	cpi	r24, 0x28	; 40
    17d2:	70 f4       	brcc	.+28     	; 0x17f0 <uart0_getln+0x96>
					uart0_line_buf[uart0_line_buf_len++] = rec_c;
    17d4:	91 e0       	ldi	r25, 0x01	; 1
    17d6:	98 0f       	add	r25, r24
    17d8:	90 93 ac 01 	sts	0x01AC, r25	; 0x8001ac <uart0_line_buf_len.2604>
    17dc:	fe 01       	movw	r30, r28
    17de:	e8 0f       	add	r30, r24
    17e0:	f1 1d       	adc	r31, r1
    17e2:	10 83       	st	Z, r17
					uart0_line_buf[uart0_line_buf_len] = 0; // append the null terminator
    17e4:	c9 0f       	add	r28, r25
    17e6:	d1 1d       	adc	r29, r1
    17e8:	18 82       	st	Y, r1
					return GET_LN_REC_ERR;
				}
			}
		}
	}
	return GET_LN_NO_BYTES;
    17ea:	81 e0       	ldi	r24, 0x01	; 1
    17ec:	90 e0       	ldi	r25, 0x00	; 0
    17ee:	0c c0       	rjmp	.+24     	; 0x1808 <uart0_getln+0xae>
					uart0_line_buf[uart0_line_buf_len++] = rec_c;
					uart0_line_buf[uart0_line_buf_len] = 0; // append the null terminator
				}
				else{
					//buffer full -> print error message
					uart0_puts_p(PSTR("Line length exceeds buffer!"));
    17f0:	8d ee       	ldi	r24, 0xED	; 237
    17f2:	95 e0       	ldi	r25, 0x05	; 5
    17f4:	0e 94 08 16 	call	0x2c10	; 0x2c10 <uart0_puts_p>
					//uart0_flush();
					//uart0_line_buf[0] = 0
					return GET_LN_REC_ERR;
    17f8:	82 e0       	ldi	r24, 0x02	; 2
    17fa:	90 e0       	ldi	r25, 0x00	; 0
    17fc:	05 c0       	rjmp	.+10     	; 0x1808 <uart0_getln+0xae>
				}
			}
		}
	}
	return GET_LN_NO_BYTES;
    17fe:	81 e0       	ldi	r24, 0x01	; 1
    1800:	90 e0       	ldi	r25, 0x00	; 0
    1802:	02 c0       	rjmp	.+4      	; 0x1808 <uart0_getln+0xae>
    1804:	81 e0       	ldi	r24, 0x01	; 1
    1806:	90 e0       	ldi	r25, 0x00	; 0
}
    1808:	df 91       	pop	r29
    180a:	cf 91       	pop	r28
    180c:	1f 91       	pop	r17
    180e:	0f 91       	pop	r16
    1810:	ff 90       	pop	r15
    1812:	08 95       	ret

00001814 <get_ir_cmd_idx>:

static uint8_t CMD_REC_UART = 0;
static uint8_t CMD_REC_IR = 0;

//Retuns the CMD index of the received IR Command
void get_ir_cmd_idx(IRMP_DATA irmp_tmp_dat, uint8_t* cmd_idx_stat, uint8_t* cmd_idx, uint8_t* keyset_idx){
    1814:	4f 92       	push	r4
    1816:	5f 92       	push	r5
    1818:	6f 92       	push	r6
    181a:	7f 92       	push	r7
    181c:	8f 92       	push	r8
    181e:	9f 92       	push	r9
    1820:	af 92       	push	r10
    1822:	bf 92       	push	r11
    1824:	cf 92       	push	r12
    1826:	df 92       	push	r13
    1828:	ef 92       	push	r14
    182a:	ff 92       	push	r15
    182c:	0f 93       	push	r16
    182e:	1f 93       	push	r17
    1830:	cf 93       	push	r28
    1832:	df 93       	push	r29
    1834:	00 d0       	rcall	.+0      	; 0x1836 <get_ir_cmd_idx+0x22>
    1836:	00 d0       	rcall	.+0      	; 0x1838 <get_ir_cmd_idx+0x24>
    1838:	00 d0       	rcall	.+0      	; 0x183a <get_ir_cmd_idx+0x26>
    183a:	cd b7       	in	r28, 0x3d	; 61
    183c:	de b7       	in	r29, 0x3e	; 62
    183e:	39 01       	movw	r6, r18
		
	ir_key_tmp.ir_addr =  irmp_data.address;
    1840:	e2 eb       	ldi	r30, 0xB2	; 178
    1842:	f1 e0       	ldi	r31, 0x01	; 1
    1844:	ab e4       	ldi	r26, 0x4B	; 75
    1846:	b3 e0       	ldi	r27, 0x03	; 3
    1848:	11 96       	adiw	r26, 0x01	; 1
    184a:	8d 91       	ld	r24, X+
    184c:	9c 91       	ld	r25, X
    184e:	12 97       	sbiw	r26, 0x02	; 2
    1850:	92 83       	std	Z+2, r25	; 0x02
    1852:	81 83       	std	Z+1, r24	; 0x01
	ir_key_tmp.ir_cmd = irmp_data.command;
    1854:	13 96       	adiw	r26, 0x03	; 3
    1856:	8d 91       	ld	r24, X+
    1858:	9c 91       	ld	r25, X
    185a:	14 97       	sbiw	r26, 0x04	; 4
    185c:	94 83       	std	Z+4, r25	; 0x04
    185e:	83 83       	std	Z+3, r24	; 0x03
	ir_key_tmp.ir_prot = irmp_data.protocol;
    1860:	8c 91       	ld	r24, X
    1862:	80 83       	st	Z, r24
			
	for (uint8_t i = 0; i < ir_keyset_len; i++){
    1864:	50 90 17 02 	lds	r5, 0x0217	; 0x800217 <ir_keyset_len>
    1868:	55 20       	and	r5, r5
    186a:	59 f1       	breq	.+86     	; 0x18c2 <get_ir_cmd_idx+0xae>
    186c:	0f 2e       	mov	r0, r31
    186e:	f3 e5       	ldi	r31, 0x53	; 83
    1870:	af 2e       	mov	r10, r31
    1872:	f3 e0       	ldi	r31, 0x03	; 3
    1874:	bf 2e       	mov	r11, r31
    1876:	f0 2d       	mov	r31, r0
    1878:	c1 2c       	mov	r12, r1
    187a:	d1 2c       	mov	r13, r1
				
		if ( memcmp( (void*) &(ir_key_tmp), (void*) &(ir_keyset[i].key_data), sizeof(ir_key_data)) == 0){
    187c:	46 01       	movw	r8, r12
    187e:	45 e0       	ldi	r20, 0x05	; 5
    1880:	50 e0       	ldi	r21, 0x00	; 0
    1882:	b5 01       	movw	r22, r10
    1884:	82 eb       	ldi	r24, 0xB2	; 178
    1886:	91 e0       	ldi	r25, 0x01	; 1
    1888:	0e 94 1e 19 	call	0x323c	; 0x323c <memcmp>
    188c:	89 2b       	or	r24, r25
    188e:	89 f4       	brne	.+34     	; 0x18b2 <get_ir_cmd_idx+0x9e>
			//Valid key found!
			*cmd_idx =  ir_keyset[i].cmd_idx;
    1890:	81 e2       	ldi	r24, 0x21	; 33
    1892:	88 9d       	mul	r24, r8
    1894:	f0 01       	movw	r30, r0
    1896:	89 9d       	mul	r24, r9
    1898:	f0 0d       	add	r31, r0
    189a:	11 24       	eor	r1, r1
    189c:	ed 5a       	subi	r30, 0xAD	; 173
    189e:	fc 4f       	sbci	r31, 0xFC	; 252
    18a0:	85 81       	ldd	r24, Z+5	; 0x05
    18a2:	f8 01       	movw	r30, r16
    18a4:	80 83       	st	Z, r24
			*keyset_idx = i;
    18a6:	f7 01       	movw	r30, r14
    18a8:	c0 82       	st	Z, r12
			*cmd_idx_stat = TRUE;
    18aa:	81 e0       	ldi	r24, 0x01	; 1
    18ac:	f3 01       	movw	r30, r6
    18ae:	80 83       	st	Z, r24
			return;
    18b0:	0d c0       	rjmp	.+26     	; 0x18cc <get_ir_cmd_idx+0xb8>
    18b2:	ff ef       	ldi	r31, 0xFF	; 255
    18b4:	cf 1a       	sub	r12, r31
    18b6:	df 0a       	sbc	r13, r31
    18b8:	81 e2       	ldi	r24, 0x21	; 33
    18ba:	a8 0e       	add	r10, r24
    18bc:	b1 1c       	adc	r11, r1
		
	ir_key_tmp.ir_addr =  irmp_data.address;
	ir_key_tmp.ir_cmd = irmp_data.command;
	ir_key_tmp.ir_prot = irmp_data.protocol;
			
	for (uint8_t i = 0; i < ir_keyset_len; i++){
    18be:	c5 14       	cp	r12, r5
    18c0:	e8 f2       	brcs	.-70     	; 0x187c <get_ir_cmd_idx+0x68>
			*cmd_idx_stat = TRUE;
			return;
		}
	}
	//No key found!
	*cmd_idx_stat = FALSE;
    18c2:	f3 01       	movw	r30, r6
    18c4:	10 82       	st	Z, r1
	*cmd_idx = 0xFF;
    18c6:	8f ef       	ldi	r24, 0xFF	; 255
    18c8:	f8 01       	movw	r30, r16
    18ca:	80 83       	st	Z, r24
}
    18cc:	26 96       	adiw	r28, 0x06	; 6
    18ce:	0f b6       	in	r0, 0x3f	; 63
    18d0:	f8 94       	cli
    18d2:	de bf       	out	0x3e, r29	; 62
    18d4:	0f be       	out	0x3f, r0	; 63
    18d6:	cd bf       	out	0x3d, r28	; 61
    18d8:	df 91       	pop	r29
    18da:	cf 91       	pop	r28
    18dc:	1f 91       	pop	r17
    18de:	0f 91       	pop	r16
    18e0:	ff 90       	pop	r15
    18e2:	ef 90       	pop	r14
    18e4:	df 90       	pop	r13
    18e6:	cf 90       	pop	r12
    18e8:	bf 90       	pop	r11
    18ea:	af 90       	pop	r10
    18ec:	9f 90       	pop	r9
    18ee:	8f 90       	pop	r8
    18f0:	7f 90       	pop	r7
    18f2:	6f 90       	pop	r6
    18f4:	5f 90       	pop	r5
    18f6:	4f 90       	pop	r4
    18f8:	08 95       	ret

000018fa <check_for_new_cmds_volupdown_act>:

//Checks for a new command while a volup or voldown cmd is active
void check_for_new_cmds_volupdown_act(void){
    18fa:	ef 92       	push	r14
    18fc:	ff 92       	push	r15
    18fe:	0f 93       	push	r16
    1900:	1f 93       	push	r17
    1902:	cf 93       	push	r28
    1904:	df 93       	push	r29
    1906:	cd b7       	in	r28, 0x3d	; 61
    1908:	de b7       	in	r29, 0x3e	; 62
    190a:	a8 97       	sbiw	r28, 0x28	; 40
    190c:	0f b6       	in	r0, 0x3f	; 63
    190e:	f8 94       	cli
    1910:	de bf       	out	0x3e, r29	; 62
    1912:	0f be       	out	0x3f, r0	; 63
    1914:	cd bf       	out	0x3d, r28	; 61
	char line_buf_tmp[LINE_BUF_SIZE];
	
	if (CMD_REC_IR){
    1916:	80 91 ad 01 	lds	r24, 0x01AD	; 0x8001ad <CMD_REC_IR>
    191a:	88 23       	and	r24, r24
    191c:	a1 f1       	breq	.+104    	; 0x1986 <check_for_new_cmds_volupdown_act+0x8c>
		//IR-Commands
		get_ir_cmd_idx(irmp_data, &cmd_idx_tmp_stat, &cmd_idx_tmp, &keyset_idx_tmp);
    191e:	0f 2e       	mov	r0, r31
    1920:	f0 eb       	ldi	r31, 0xB0	; 176
    1922:	ef 2e       	mov	r14, r31
    1924:	f1 e0       	ldi	r31, 0x01	; 1
    1926:	ff 2e       	mov	r15, r31
    1928:	f0 2d       	mov	r31, r0
    192a:	01 eb       	ldi	r16, 0xB1	; 177
    192c:	11 e0       	ldi	r17, 0x01	; 1
    192e:	2f ea       	ldi	r18, 0xAF	; 175
    1930:	31 e0       	ldi	r19, 0x01	; 1
    1932:	40 91 4b 03 	lds	r20, 0x034B	; 0x80034b <irmp_data>
    1936:	50 91 4c 03 	lds	r21, 0x034C	; 0x80034c <irmp_data+0x1>
    193a:	60 91 4d 03 	lds	r22, 0x034D	; 0x80034d <irmp_data+0x2>
    193e:	70 91 4e 03 	lds	r23, 0x034E	; 0x80034e <irmp_data+0x3>
    1942:	80 91 4f 03 	lds	r24, 0x034F	; 0x80034f <irmp_data+0x4>
    1946:	90 91 50 03 	lds	r25, 0x0350	; 0x800350 <irmp_data+0x5>
    194a:	0e 94 0a 0c 	call	0x1814	; 0x1814 <get_ir_cmd_idx>
		
		if (cmd_idx_tmp_stat){
    194e:	80 91 af 01 	lds	r24, 0x01AF	; 0x8001af <cmd_idx_tmp_stat>
    1952:	88 23       	and	r24, r24
    1954:	91 f0       	breq	.+36     	; 0x197a <check_for_new_cmds_volupdown_act+0x80>
			if (cmd_idx_tmp == CMD_IDX_VOLUP){
    1956:	80 91 b1 01 	lds	r24, 0x01B1	; 0x8001b1 <cmd_idx_tmp>
    195a:	81 11       	cpse	r24, r1
    195c:	06 c0       	rjmp	.+12     	; 0x196a <check_for_new_cmds_volupdown_act+0x70>
				FSM_STATE = STATE_VOLUP;
    195e:	81 e0       	ldi	r24, 0x01	; 1
    1960:	80 93 1c 02 	sts	0x021C, r24	; 0x80021c <FSM_STATE>
				CMD_REC_IR = 0;
    1964:	10 92 ad 01 	sts	0x01AD, r1	; 0x8001ad <CMD_REC_IR>
				return;
    1968:	32 c0       	rjmp	.+100    	; 0x19ce <check_for_new_cmds_volupdown_act+0xd4>
			}
			else if (cmd_idx_tmp == CMD_IDX_VOLDOWN){
    196a:	81 30       	cpi	r24, 0x01	; 1
    196c:	31 f4       	brne	.+12     	; 0x197a <check_for_new_cmds_volupdown_act+0x80>
				FSM_STATE = STATE_VOLDOWN;
    196e:	82 e0       	ldi	r24, 0x02	; 2
    1970:	80 93 1c 02 	sts	0x021C, r24	; 0x80021c <FSM_STATE>
				CMD_REC_IR = 0;
    1974:	10 92 ad 01 	sts	0x01AD, r1	; 0x8001ad <CMD_REC_IR>
				return;
    1978:	2a c0       	rjmp	.+84     	; 0x19ce <check_for_new_cmds_volupdown_act+0xd4>
			}
		}
		
		//The Received Command was not a volup or voldown command
		//->No retrigger
		inc_timer_stop();
    197a:	0e 94 50 05 	call	0xaa0	; 0xaa0 <inc_timer_stop>
		set_motor_off();
    197e:	0e 94 5d 05 	call	0xaba	; 0xaba <set_motor_off>
		FSM_STATE = STATE_INIT;
    1982:	10 92 1c 02 	sts	0x021C, r1	; 0x80021c <FSM_STATE>
	}
		
	if (CMD_REC_UART){
    1986:	80 91 ae 01 	lds	r24, 0x01AE	; 0x8001ae <CMD_REC_UART>
    198a:	88 23       	and	r24, r24
    198c:	01 f1       	breq	.+64     	; 0x19ce <check_for_new_cmds_volupdown_act+0xd4>
		//UART
		//make a copy of uart line buffer, peek_volctrl modifies the string
		strcpy(line_buf_tmp, uart0_line_buf);
    198e:	63 e2       	ldi	r22, 0x23	; 35
    1990:	73 e0       	ldi	r23, 0x03	; 3
    1992:	ce 01       	movw	r24, r28
    1994:	01 96       	adiw	r24, 0x01	; 1
    1996:	0e 94 3f 19 	call	0x327e	; 0x327e <strcpy>
		tmp = peek_volctrl(line_buf_tmp);
    199a:	ce 01       	movw	r24, r28
    199c:	01 96       	adiw	r24, 0x01	; 1
    199e:	0e 94 02 0b 	call	0x1604	; 0x1604 <peek_volctrl>
		if (tmp == CMD_IDX_VOLUP){
    19a2:	81 11       	cpse	r24, r1
    19a4:	06 c0       	rjmp	.+12     	; 0x19b2 <check_for_new_cmds_volupdown_act+0xb8>
			FSM_STATE = STATE_VOLUP;
    19a6:	81 e0       	ldi	r24, 0x01	; 1
    19a8:	80 93 1c 02 	sts	0x021C, r24	; 0x80021c <FSM_STATE>
			CMD_REC_UART = 0;
    19ac:	10 92 ae 01 	sts	0x01AE, r1	; 0x8001ae <CMD_REC_UART>
			return;
    19b0:	0e c0       	rjmp	.+28     	; 0x19ce <check_for_new_cmds_volupdown_act+0xd4>
		}
		else if (tmp == CMD_IDX_VOLDOWN){
    19b2:	81 30       	cpi	r24, 0x01	; 1
    19b4:	31 f4       	brne	.+12     	; 0x19c2 <check_for_new_cmds_volupdown_act+0xc8>
			FSM_STATE = STATE_VOLDOWN;
    19b6:	82 e0       	ldi	r24, 0x02	; 2
    19b8:	80 93 1c 02 	sts	0x021C, r24	; 0x80021c <FSM_STATE>
			CMD_REC_UART = 0;
    19bc:	10 92 ae 01 	sts	0x01AE, r1	; 0x8001ae <CMD_REC_UART>
			return;
    19c0:	06 c0       	rjmp	.+12     	; 0x19ce <check_for_new_cmds_volupdown_act+0xd4>
		}
		//The Received Command was not a volup or voldown command
		//->No retrigger
		inc_timer_stop();
    19c2:	0e 94 50 05 	call	0xaa0	; 0xaa0 <inc_timer_stop>
		set_motor_off();
    19c6:	0e 94 5d 05 	call	0xaba	; 0xaba <set_motor_off>
		FSM_STATE = STATE_INIT;
    19ca:	10 92 1c 02 	sts	0x021C, r1	; 0x80021c <FSM_STATE>
	}
}
    19ce:	a8 96       	adiw	r28, 0x28	; 40
    19d0:	0f b6       	in	r0, 0x3f	; 63
    19d2:	f8 94       	cli
    19d4:	de bf       	out	0x3e, r29	; 62
    19d6:	0f be       	out	0x3f, r0	; 63
    19d8:	cd bf       	out	0x3d, r28	; 61
    19da:	df 91       	pop	r29
    19dc:	cf 91       	pop	r28
    19de:	1f 91       	pop	r17
    19e0:	0f 91       	pop	r16
    19e2:	ff 90       	pop	r15
    19e4:	ef 90       	pop	r14
    19e6:	08 95       	ret

000019e8 <fsm>:

//FINITE-STATE-MACHINE
void fsm (void){
    19e8:	df 92       	push	r13
    19ea:	ef 92       	push	r14
    19ec:	ff 92       	push	r15
    19ee:	0f 93       	push	r16
    19f0:	1f 93       	push	r17
    19f2:	cf 93       	push	r28
    19f4:	df 93       	push	r29
    19f6:	cd b7       	in	r28, 0x3d	; 61
    19f8:	de b7       	in	r29, 0x3e	; 62
    19fa:	a8 97       	sbiw	r28, 0x28	; 40
    19fc:	0f b6       	in	r0, 0x3f	; 63
    19fe:	f8 94       	cli
    1a00:	de bf       	out	0x3e, r29	; 62
    1a02:	0f be       	out	0x3f, r0	; 63
    1a04:	cd bf       	out	0x3d, r28	; 61

	//adc_run_dist = 0;
	char line_buf_tmp[LINE_BUF_SIZE];
	
	//Check uart for new messages
	if (uart0_getln(uart0_line_buf) == GET_LN_RECEIVED){
    1a06:	83 e2       	ldi	r24, 0x23	; 35
    1a08:	93 e0       	ldi	r25, 0x03	; 3
    1a0a:	0e 94 ad 0b 	call	0x175a	; 0x175a <uart0_getln>
    1a0e:	89 2b       	or	r24, r25
    1a10:	19 f4       	brne	.+6      	; 0x1a18 <fsm+0x30>
		//got a command via UART (WiFi)
		CMD_REC_UART = TRUE;
    1a12:	81 e0       	ldi	r24, 0x01	; 1
    1a14:	80 93 ae 01 	sts	0x01AE, r24	; 0x8001ae <CMD_REC_UART>
	}

	//Check IRMP for new messages
	if (irmp_get_data (&irmp_data)){
    1a18:	8b e4       	ldi	r24, 0x4B	; 75
    1a1a:	93 e0       	ldi	r25, 0x03	; 3
    1a1c:	0e 94 c7 0f 	call	0x1f8e	; 0x1f8e <irmp_get_data>
    1a20:	88 23       	and	r24, r24
    1a22:	19 f0       	breq	.+6      	; 0x1a2a <fsm+0x42>
		// got an IR message
		CMD_REC_IR = TRUE;
    1a24:	81 e0       	ldi	r24, 0x01	; 1
    1a26:	80 93 ad 01 	sts	0x01AD, r24	; 0x8001ad <CMD_REC_IR>
    return 1;
}

static __inline__ uint8_t __iCliRetVal(void)
{
    cli();
    1a2a:	f8 94       	cli
	}

	//Get current adc value for poti position reading
	ATOMIC_BLOCK(ATOMIC_FORCEON){
		adc_val_fsm =   adc_val;
    1a2c:	80 91 1a 02 	lds	r24, 0x021A	; 0x80021a <adc_val>
    1a30:	90 91 1b 02 	lds	r25, 0x021B	; 0x80021b <adc_val+0x1>
    1a34:	90 93 e0 01 	sts	0x01E0, r25	; 0x8001e0 <adc_val_fsm+0x1>
    1a38:	80 93 df 01 	sts	0x01DF, r24	; 0x8001df <adc_val_fsm>
    return 1;
}

static __inline__ void __iSeiParam(const uint8_t *__s)
{
    sei();
    1a3c:	78 94       	sei
	  }
	
	
	switch ( FSM_STATE ) {
    1a3e:	e0 91 1c 02 	lds	r30, 0x021C	; 0x80021c <FSM_STATE>
    1a42:	8e 2f       	mov	r24, r30
    1a44:	90 e0       	ldi	r25, 0x00	; 0
    1a46:	87 30       	cpi	r24, 0x07	; 7
    1a48:	91 05       	cpc	r25, r1
    1a4a:	08 f0       	brcs	.+2      	; 0x1a4e <fsm+0x66>
    1a4c:	ba c1       	rjmp	.+884    	; 0x1dc2 <fsm+0x3da>
    1a4e:	fc 01       	movw	r30, r24
    1a50:	e6 5a       	subi	r30, 0xA6	; 166
    1a52:	ff 4f       	sbci	r31, 0xFF	; 255
    1a54:	0c 94 c4 17 	jmp	0x2f88	; 0x2f88 <__tablejump2__>
		case STATE_INIT:
		//Init State, do nothing (wait for commands)
			
		//Wait for UART-commands
		if (CMD_REC_UART) {
    1a58:	80 91 ae 01 	lds	r24, 0x01AE	; 0x8001ae <CMD_REC_UART>
    1a5c:	88 23       	and	r24, r24
    1a5e:	31 f0       	breq	.+12     	; 0x1a6c <fsm+0x84>
			//Call CMD parser
			cmd_parser(uart0_line_buf);
    1a60:	83 e2       	ldi	r24, 0x23	; 35
    1a62:	93 e0       	ldi	r25, 0x03	; 3
    1a64:	0e 94 12 0a 	call	0x1424	; 0x1424 <cmd_parser>
			CMD_REC_UART = 0;
    1a68:	10 92 ae 01 	sts	0x01AE, r1	; 0x8001ae <CMD_REC_UART>
		}

		if (CMD_REC_IR){
    1a6c:	80 91 ad 01 	lds	r24, 0x01AD	; 0x8001ad <CMD_REC_IR>
    1a70:	88 23       	and	r24, r24
    1a72:	09 f4       	brne	.+2      	; 0x1a76 <fsm+0x8e>
    1a74:	a6 c1       	rjmp	.+844    	; 0x1dc2 <fsm+0x3da>
				//CMD_REC_IR = 0;
				//break;
			//}

			//Check if the received IR-Command matches a key in the keyset
			ir_key_tmp.ir_addr =  irmp_data.address;
    1a76:	e2 eb       	ldi	r30, 0xB2	; 178
    1a78:	f1 e0       	ldi	r31, 0x01	; 1
    1a7a:	ab e4       	ldi	r26, 0x4B	; 75
    1a7c:	b3 e0       	ldi	r27, 0x03	; 3
    1a7e:	11 96       	adiw	r26, 0x01	; 1
    1a80:	8d 91       	ld	r24, X+
    1a82:	9c 91       	ld	r25, X
    1a84:	12 97       	sbiw	r26, 0x02	; 2
    1a86:	92 83       	std	Z+2, r25	; 0x02
    1a88:	81 83       	std	Z+1, r24	; 0x01
			ir_key_tmp.ir_cmd = irmp_data.command;
    1a8a:	13 96       	adiw	r26, 0x03	; 3
    1a8c:	8d 91       	ld	r24, X+
    1a8e:	9c 91       	ld	r25, X
    1a90:	14 97       	sbiw	r26, 0x04	; 4
    1a92:	94 83       	std	Z+4, r25	; 0x04
    1a94:	83 83       	std	Z+3, r24	; 0x03
			ir_key_tmp.ir_prot = irmp_data.protocol;
    1a96:	8c 91       	ld	r24, X
    1a98:	80 83       	st	Z, r24
			
			for (int i = 0; i < ir_keyset_len; i++){
    1a9a:	80 91 17 02 	lds	r24, 0x0217	; 0x800217 <ir_keyset_len>
    1a9e:	88 23       	and	r24, r24
    1aa0:	91 f1       	breq	.+100    	; 0x1b06 <fsm+0x11e>
    1aa2:	03 e5       	ldi	r16, 0x53	; 83
    1aa4:	13 e0       	ldi	r17, 0x03	; 3
    1aa6:	e1 2c       	mov	r14, r1
    1aa8:	f1 2c       	mov	r15, r1
				
				if ( memcmp( (void*) &(ir_key_tmp), (void*) &(ir_keyset[i].key_data), sizeof(ir_key_data)) == 0){
					//Valid key found!

					//Build cmd string
					strcpy(tmp_cmd_str, cmd_set[ir_keyset[i].cmd_idx].cmd_word);
    1aaa:	0f 2e       	mov	r0, r31
    1aac:	fd e0       	ldi	r31, 0x0D	; 13
    1aae:	df 2e       	mov	r13, r31
    1ab0:	f0 2d       	mov	r31, r0
			ir_key_tmp.ir_cmd = irmp_data.command;
			ir_key_tmp.ir_prot = irmp_data.protocol;
			
			for (int i = 0; i < ir_keyset_len; i++){
				
				if ( memcmp( (void*) &(ir_key_tmp), (void*) &(ir_keyset[i].key_data), sizeof(ir_key_data)) == 0){
    1ab2:	45 e0       	ldi	r20, 0x05	; 5
    1ab4:	50 e0       	ldi	r21, 0x00	; 0
    1ab6:	b8 01       	movw	r22, r16
    1ab8:	82 eb       	ldi	r24, 0xB2	; 178
    1aba:	91 e0       	ldi	r25, 0x01	; 1
    1abc:	0e 94 1e 19 	call	0x323c	; 0x323c <memcmp>
    1ac0:	89 2b       	or	r24, r25
    1ac2:	b1 f4       	brne	.+44     	; 0x1af0 <fsm+0x108>
					//Valid key found!

					//Build cmd string
					strcpy(tmp_cmd_str, cmd_set[ir_keyset[i].cmd_idx].cmd_word);
    1ac4:	f8 01       	movw	r30, r16
    1ac6:	65 81       	ldd	r22, Z+5	; 0x05
    1ac8:	d6 9e       	mul	r13, r22
    1aca:	b0 01       	movw	r22, r0
    1acc:	11 24       	eor	r1, r1
    1ace:	63 5f       	subi	r22, 0xF3	; 243
    1ad0:	7e 4f       	sbci	r23, 0xFE	; 254
    1ad2:	87 eb       	ldi	r24, 0xB7	; 183
    1ad4:	91 e0       	ldi	r25, 0x01	; 1
    1ad6:	0e 94 3f 19 	call	0x327e	; 0x327e <strcpy>
					strcat(tmp_cmd_str, ir_keyset[i].arg_str);
    1ada:	b8 01       	movw	r22, r16
    1adc:	6a 5f       	subi	r22, 0xFA	; 250
    1ade:	7f 4f       	sbci	r23, 0xFF	; 255
    1ae0:	87 eb       	ldi	r24, 0xB7	; 183
    1ae2:	91 e0       	ldi	r25, 0x01	; 1
    1ae4:	0e 94 2b 19 	call	0x3256	; 0x3256 <strcat>
					
					//Pass the data to cmd parser
					cmd_parser(tmp_cmd_str);
    1ae8:	87 eb       	ldi	r24, 0xB7	; 183
    1aea:	91 e0       	ldi	r25, 0x01	; 1
    1aec:	0e 94 12 0a 	call	0x1424	; 0x1424 <cmd_parser>
			//Check if the received IR-Command matches a key in the keyset
			ir_key_tmp.ir_addr =  irmp_data.address;
			ir_key_tmp.ir_cmd = irmp_data.command;
			ir_key_tmp.ir_prot = irmp_data.protocol;
			
			for (int i = 0; i < ir_keyset_len; i++){
    1af0:	ff ef       	ldi	r31, 0xFF	; 255
    1af2:	ef 1a       	sub	r14, r31
    1af4:	ff 0a       	sbc	r15, r31
    1af6:	0f 5d       	subi	r16, 0xDF	; 223
    1af8:	1f 4f       	sbci	r17, 0xFF	; 255
    1afa:	80 91 17 02 	lds	r24, 0x0217	; 0x800217 <ir_keyset_len>
    1afe:	90 e0       	ldi	r25, 0x00	; 0
    1b00:	e8 16       	cp	r14, r24
    1b02:	f9 06       	cpc	r15, r25
    1b04:	b4 f2       	brlt	.-84     	; 0x1ab2 <fsm+0xca>
					//Pass the data to cmd parser
					cmd_parser(tmp_cmd_str);
					//THe commands will handle the FSM_STATE Variable
				}
			}
			CMD_REC_IR = 0;
    1b06:	10 92 ad 01 	sts	0x01AD, r1	; 0x8001ad <CMD_REC_IR>
    1b0a:	5b c1       	rjmp	.+694    	; 0x1dc2 <fsm+0x3da>
		}
		break;
			
		case STATE_VOLUP:
		//Check if the Motor is at the upper (right) limit
		if (chk_adc_range(adc_val_fsm) == ADC_POT_STAT_HI){
    1b0c:	80 91 df 01 	lds	r24, 0x01DF	; 0x8001df <adc_val_fsm>
    1b10:	90 91 e0 01 	lds	r25, 0x01E0	; 0x8001e0 <adc_val_fsm+0x1>
    1b14:	0e 94 69 05 	call	0xad2	; 0xad2 <chk_adc_range>
    1b18:	82 30       	cpi	r24, 0x02	; 2
    1b1a:	59 f4       	brne	.+22     	; 0x1b32 <fsm+0x14a>
			//Motor potentiometer is at right limit
			uart0_puts_p(PSTR("Motor @ upper lim.!\r\n"));
    1b1c:	84 e1       	ldi	r24, 0x14	; 20
    1b1e:	97 e0       	ldi	r25, 0x07	; 7
    1b20:	0e 94 08 16 	call	0x2c10	; 0x2c10 <uart0_puts_p>
			
			//Do not turn the Motor on
			//Stop timers go to init
			FSM_STATE = STATE_INIT;
    1b24:	10 92 1c 02 	sts	0x021C, r1	; 0x80021c <FSM_STATE>

			inc_timer_stop();
    1b28:	0e 94 50 05 	call	0xaa0	; 0xaa0 <inc_timer_stop>
			set_motor_off();
    1b2c:	0e 94 5d 05 	call	0xaba	; 0xaba <set_motor_off>
			break;
    1b30:	48 c1       	rjmp	.+656    	; 0x1dc2 <fsm+0x3da>
		}
			
		if (inc_timer_stat == FALSE){
    1b32:	80 91 1d 02 	lds	r24, 0x021D	; 0x80021d <inc_timer_stat>
    1b36:	81 11       	cpse	r24, r1
    1b38:	0f c0       	rjmp	.+30     	; 0x1b58 <fsm+0x170>
			//Timer not running
			inc_timer_start();
    1b3a:	0e 94 3f 05 	call	0xa7e	; 0xa7e <inc_timer_start>
				
			//Start motor if it is not already running
			if ( get_motor_stat() == MOTOR_STAT_OFF ){
    1b3e:	0e 94 ca 05 	call	0xb94	; 0xb94 <get_motor_stat>
    1b42:	81 11       	cpse	r24, r1
    1b44:	03 c0       	rjmp	.+6      	; 0x1b4c <fsm+0x164>
				set_motor_cw();		//Start motor in cw direction (volup)
    1b46:	0e 94 e8 05 	call	0xbd0	; 0xbd0 <set_motor_cw>
    1b4a:	0a c0       	rjmp	.+20     	; 0x1b60 <fsm+0x178>
				} else {
				//ERROR: running motor without a timer is not allowed. Turn on error indicator LED
				error_led(TRUE);
    1b4c:	81 e0       	ldi	r24, 0x01	; 1
    1b4e:	0e 94 c4 05 	call	0xb88	; 0xb88 <error_led>
				set_motor_off();
    1b52:	0e 94 5d 05 	call	0xaba	; 0xaba <set_motor_off>
    1b56:	04 c0       	rjmp	.+8      	; 0x1b60 <fsm+0x178>
			}
		}
		else {
			//Timer already running (e.g from a previous volup or voldown cmd)
			inc_timer_rst(); // restart timer
    1b58:	0e 94 58 05 	call	0xab0	; 0xab0 <inc_timer_rst>
				
			//Rotation direction is unknown, here -> handled in set_motor_cw()
			set_motor_cw();
    1b5c:	0e 94 e8 05 	call	0xbd0	; 0xbd0 <set_motor_cw>
		}
		//Go to volume up active sate
		FSM_STATE = STATE_VOLUP_ACT;
    1b60:	85 e0       	ldi	r24, 0x05	; 5
    1b62:	80 93 1c 02 	sts	0x021C, r24	; 0x80021c <FSM_STATE>
		break;
    1b66:	2d c1       	rjmp	.+602    	; 0x1dc2 <fsm+0x3da>

		case STATE_VOLDOWN:
			//Check if the Motor is at the lower (left) limit
			if (chk_adc_range(adc_val_fsm) == ADC_POT_STAT_LO){
    1b68:	80 91 df 01 	lds	r24, 0x01DF	; 0x8001df <adc_val_fsm>
    1b6c:	90 91 e0 01 	lds	r25, 0x01E0	; 0x8001e0 <adc_val_fsm+0x1>
    1b70:	0e 94 69 05 	call	0xad2	; 0xad2 <chk_adc_range>
    1b74:	81 30       	cpi	r24, 0x01	; 1
    1b76:	59 f4       	brne	.+22     	; 0x1b8e <fsm+0x1a6>
				//Motor potentiometer is at right limit
				uart0_puts_p(PSTR("Motor @ lower lim.!\r\n"));
    1b78:	8e ef       	ldi	r24, 0xFE	; 254
    1b7a:	96 e0       	ldi	r25, 0x06	; 6
    1b7c:	0e 94 08 16 	call	0x2c10	; 0x2c10 <uart0_puts_p>
				
				//Do not turn the motor on
				FSM_STATE = STATE_INIT;
    1b80:	10 92 1c 02 	sts	0x021C, r1	; 0x80021c <FSM_STATE>
				inc_timer_stop();
    1b84:	0e 94 50 05 	call	0xaa0	; 0xaa0 <inc_timer_stop>
				set_motor_off();
    1b88:	0e 94 5d 05 	call	0xaba	; 0xaba <set_motor_off>
				break;
    1b8c:	1a c1       	rjmp	.+564    	; 0x1dc2 <fsm+0x3da>
			}
			
			if (inc_timer_stat == FALSE){
    1b8e:	80 91 1d 02 	lds	r24, 0x021D	; 0x80021d <inc_timer_stat>
    1b92:	81 11       	cpse	r24, r1
    1b94:	0f c0       	rjmp	.+30     	; 0x1bb4 <fsm+0x1cc>
				//Timer not running
				inc_timer_start();
    1b96:	0e 94 3f 05 	call	0xa7e	; 0xa7e <inc_timer_start>
				
				//Start motor if it is not already running
				if ( get_motor_stat() == MOTOR_STAT_OFF ){
    1b9a:	0e 94 ca 05 	call	0xb94	; 0xb94 <get_motor_stat>
    1b9e:	81 11       	cpse	r24, r1
    1ba0:	03 c0       	rjmp	.+6      	; 0x1ba8 <fsm+0x1c0>
					set_motor_ccw();		//Start motor in ccw direction (voldown)
    1ba2:	0e 94 02 06 	call	0xc04	; 0xc04 <set_motor_ccw>
    1ba6:	0a c0       	rjmp	.+20     	; 0x1bbc <fsm+0x1d4>
					} else {
					//ERROR: running motor without a timer is not allowed turn on error indicator LED
					error_led(TRUE);
    1ba8:	81 e0       	ldi	r24, 0x01	; 1
    1baa:	0e 94 c4 05 	call	0xb88	; 0xb88 <error_led>
					set_motor_off();
    1bae:	0e 94 5d 05 	call	0xaba	; 0xaba <set_motor_off>
    1bb2:	04 c0       	rjmp	.+8      	; 0x1bbc <fsm+0x1d4>
				}
			}
			else {
				//Timer already running (e.g from a previous volup cmd)
				inc_timer_rst(); // restart timer
    1bb4:	0e 94 58 05 	call	0xab0	; 0xab0 <inc_timer_rst>
				
				//Rotation direction is unknown, here -> handled in set_motor_cw()
				set_motor_ccw();
    1bb8:	0e 94 02 06 	call	0xc04	; 0xc04 <set_motor_ccw>
			}
			FSM_STATE = STATE_VOLDOWN_ACT;
    1bbc:	86 e0       	ldi	r24, 0x06	; 6
    1bbe:	80 93 1c 02 	sts	0x021C, r24	; 0x80021c <FSM_STATE>
		break;
    1bc2:	ff c0       	rjmp	.+510    	; 0x1dc2 <fsm+0x3da>
			
		case STATE_VOLUP_ACT:
			//Timer stopped (time elapsed)
			if ( !inc_timer_stat){
    1bc4:	80 91 1d 02 	lds	r24, 0x021D	; 0x80021d <inc_timer_stat>
    1bc8:	81 11       	cpse	r24, r1
    1bca:	05 c0       	rjmp	.+10     	; 0x1bd6 <fsm+0x1ee>
				//INC-Duration exceeded
				set_motor_off();
    1bcc:	0e 94 5d 05 	call	0xaba	; 0xaba <set_motor_off>
				FSM_STATE = STATE_INIT;
    1bd0:	10 92 1c 02 	sts	0x021C, r1	; 0x80021c <FSM_STATE>
				break;
    1bd4:	f6 c0       	rjmp	.+492    	; 0x1dc2 <fsm+0x3da>
			}
			
			//New Command Received
			check_for_new_cmds_volupdown_act();
    1bd6:	0e 94 7d 0c 	call	0x18fa	; 0x18fa <check_for_new_cmds_volupdown_act>
			
			//Check if the Motor reached the limit
			if (chk_adc_range(adc_val_fsm) == ADC_POT_STAT_HI){
    1bda:	80 91 df 01 	lds	r24, 0x01DF	; 0x8001df <adc_val_fsm>
    1bde:	90 91 e0 01 	lds	r25, 0x01E0	; 0x8001e0 <adc_val_fsm+0x1>
    1be2:	0e 94 69 05 	call	0xad2	; 0xad2 <chk_adc_range>
    1be6:	82 30       	cpi	r24, 0x02	; 2
    1be8:	09 f0       	breq	.+2      	; 0x1bec <fsm+0x204>
    1bea:	eb c0       	rjmp	.+470    	; 0x1dc2 <fsm+0x3da>
				
				uart0_puts_p(PSTR("Motor @ upper lim.!\r\n"));
    1bec:	88 ee       	ldi	r24, 0xE8	; 232
    1bee:	96 e0       	ldi	r25, 0x06	; 6
    1bf0:	0e 94 08 16 	call	0x2c10	; 0x2c10 <uart0_puts_p>
				
				set_motor_off();
    1bf4:	0e 94 5d 05 	call	0xaba	; 0xaba <set_motor_off>
				inc_timer_stop();
    1bf8:	0e 94 50 05 	call	0xaa0	; 0xaa0 <inc_timer_stop>
				FSM_STATE = STATE_INIT;
    1bfc:	10 92 1c 02 	sts	0x021C, r1	; 0x80021c <FSM_STATE>
    1c00:	e0 c0       	rjmp	.+448    	; 0x1dc2 <fsm+0x3da>
			}
			break;
			
			case STATE_VOLDOWN_ACT:
			//Timer stopped (time elapsed)
			if ( !inc_timer_stat){
    1c02:	80 91 1d 02 	lds	r24, 0x021D	; 0x80021d <inc_timer_stat>
    1c06:	81 11       	cpse	r24, r1
    1c08:	05 c0       	rjmp	.+10     	; 0x1c14 <fsm+0x22c>
				//INC-Duration exceeded
				set_motor_off();
    1c0a:	0e 94 5d 05 	call	0xaba	; 0xaba <set_motor_off>
				FSM_STATE = STATE_INIT;
    1c0e:	10 92 1c 02 	sts	0x021C, r1	; 0x80021c <FSM_STATE>
				break;
    1c12:	d7 c0       	rjmp	.+430    	; 0x1dc2 <fsm+0x3da>
			}

			//New command received
			check_for_new_cmds_volupdown_act();
    1c14:	0e 94 7d 0c 	call	0x18fa	; 0x18fa <check_for_new_cmds_volupdown_act>

			//Check if the Motor reached the limit
			if (chk_adc_range(adc_val_fsm) == ADC_POT_STAT_LO){
    1c18:	80 91 df 01 	lds	r24, 0x01DF	; 0x8001df <adc_val_fsm>
    1c1c:	90 91 e0 01 	lds	r25, 0x01E0	; 0x8001e0 <adc_val_fsm+0x1>
    1c20:	0e 94 69 05 	call	0xad2	; 0xad2 <chk_adc_range>
    1c24:	81 30       	cpi	r24, 0x01	; 1
    1c26:	09 f0       	breq	.+2      	; 0x1c2a <fsm+0x242>
    1c28:	cc c0       	rjmp	.+408    	; 0x1dc2 <fsm+0x3da>
				
				uart0_puts_p(PSTR("Motor @ lower lim.!\r\n"));
    1c2a:	82 ed       	ldi	r24, 0xD2	; 210
    1c2c:	96 e0       	ldi	r25, 0x06	; 6
    1c2e:	0e 94 08 16 	call	0x2c10	; 0x2c10 <uart0_puts_p>

				set_motor_off();
    1c32:	0e 94 5d 05 	call	0xaba	; 0xaba <set_motor_off>
				inc_timer_stop();
    1c36:	0e 94 50 05 	call	0xaa0	; 0xaa0 <inc_timer_stop>
				FSM_STATE = STATE_INIT;
    1c3a:	10 92 1c 02 	sts	0x021C, r1	; 0x80021c <FSM_STATE>
    1c3e:	c1 c0       	rjmp	.+386    	; 0x1dc2 <fsm+0x3da>
			}
		break;
			
		case STATE_SETVOL:
			adc_run_dist = adc_val_fsm - setvol_targ;
    1c40:	40 91 df 01 	lds	r20, 0x01DF	; 0x8001df <adc_val_fsm>
    1c44:	50 91 e0 01 	lds	r21, 0x01E0	; 0x8001e0 <adc_val_fsm+0x1>
    1c48:	20 91 18 02 	lds	r18, 0x0218	; 0x800218 <setvol_targ>
    1c4c:	30 91 19 02 	lds	r19, 0x0219	; 0x800219 <setvol_targ+0x1>
    1c50:	ca 01       	movw	r24, r20
    1c52:	82 1b       	sub	r24, r18
    1c54:	93 0b       	sbc	r25, r19
    1c56:	90 93 e2 01 	sts	0x01E2, r25	; 0x8001e2 <adc_run_dist+0x1>
    1c5a:	80 93 e1 01 	sts	0x01E1, r24	; 0x8001e1 <adc_run_dist>
		
			if (abs(adc_run_dist) < SETVOL_TOL) {
    1c5e:	89 2b       	or	r24, r25
    1c60:	29 f4       	brne	.+10     	; 0x1c6c <fsm+0x284>
					//Noting to do
					set_motor_off();
    1c62:	0e 94 5d 05 	call	0xaba	; 0xaba <set_motor_off>
					FSM_STATE = STATE_INIT;
    1c66:	10 92 1c 02 	sts	0x021C, r1	; 0x80021c <FSM_STATE>
					break;
    1c6a:	ab c0       	rjmp	.+342    	; 0x1dc2 <fsm+0x3da>
				}
			
			//Get correct rotation direction
			if (adc_val_fsm < setvol_targ) {
    1c6c:	42 17       	cp	r20, r18
    1c6e:	53 07       	cpc	r21, r19
    1c70:	18 f4       	brcc	.+6      	; 0x1c78 <fsm+0x290>
				//We have to rotate CW
				set_motor_cw();
    1c72:	0e 94 e8 05 	call	0xbd0	; 0xbd0 <set_motor_cw>
    1c76:	02 c0       	rjmp	.+4      	; 0x1c7c <fsm+0x294>
			}
			else{
				// we have to rote CCW
				set_motor_ccw();
    1c78:	0e 94 02 06 	call	0xc04	; 0xc04 <set_motor_ccw>
			}
			FSM_STATE = STATE_SETVOL_ACT;
    1c7c:	84 e0       	ldi	r24, 0x04	; 4
    1c7e:	80 93 1c 02 	sts	0x021C, r24	; 0x80021c <FSM_STATE>
			break;
    1c82:	9f c0       	rjmp	.+318    	; 0x1dc2 <fsm+0x3da>
			
		case STATE_SETVOL_ACT:
			adc_run_dist = adc_val_fsm - setvol_targ;
    1c84:	80 91 df 01 	lds	r24, 0x01DF	; 0x8001df <adc_val_fsm>
    1c88:	90 91 e0 01 	lds	r25, 0x01E0	; 0x8001e0 <adc_val_fsm+0x1>
    1c8c:	20 91 18 02 	lds	r18, 0x0218	; 0x800218 <setvol_targ>
    1c90:	30 91 19 02 	lds	r19, 0x0219	; 0x800219 <setvol_targ+0x1>
    1c94:	82 1b       	sub	r24, r18
    1c96:	93 0b       	sbc	r25, r19
    1c98:	90 93 e2 01 	sts	0x01E2, r25	; 0x8001e2 <adc_run_dist+0x1>
    1c9c:	80 93 e1 01 	sts	0x01E1, r24	; 0x8001e1 <adc_run_dist>
		
			//Motor passed the correct value
			if ( ((adc_run_dist > 0) && (get_motor_stat() != MOTOR_STAT_CCW)) ||
    1ca0:	18 16       	cp	r1, r24
    1ca2:	19 06       	cpc	r1, r25
    1ca4:	24 f4       	brge	.+8      	; 0x1cae <fsm+0x2c6>
    1ca6:	0e 94 ca 05 	call	0xb94	; 0xb94 <get_motor_stat>
    1caa:	82 30       	cpi	r24, 0x02	; 2
    1cac:	51 f4       	brne	.+20     	; 0x1cc2 <fsm+0x2da>
    1cae:	80 91 e1 01 	lds	r24, 0x01E1	; 0x8001e1 <adc_run_dist>
    1cb2:	90 91 e2 01 	lds	r25, 0x01E2	; 0x8001e2 <adc_run_dist+0x1>
    1cb6:	99 23       	and	r25, r25
    1cb8:	7c f4       	brge	.+30     	; 0x1cd8 <fsm+0x2f0>
			((adc_run_dist < 0) && (get_motor_stat() != MOTOR_STAT_CW))) {
    1cba:	0e 94 ca 05 	call	0xb94	; 0xb94 <get_motor_stat>
    1cbe:	81 30       	cpi	r24, 0x01	; 1
    1cc0:	59 f0       	breq	.+22     	; 0x1cd8 <fsm+0x2f0>
				set_motor_off();
    1cc2:	0e 94 5d 05 	call	0xaba	; 0xaba <set_motor_off>
				uart0_puts_p(PSTR("Volume search error!\r\n"));
    1cc6:	8b eb       	ldi	r24, 0xBB	; 187
    1cc8:	96 e0       	ldi	r25, 0x06	; 6
    1cca:	0e 94 08 16 	call	0x2c10	; 0x2c10 <uart0_puts_p>
				FSM_STATE = STATE_INIT;
    1cce:	10 92 1c 02 	sts	0x021C, r1	; 0x80021c <FSM_STATE>
				error_led(TRUE);
    1cd2:	81 e0       	ldi	r24, 0x01	; 1
    1cd4:	0e 94 c4 05 	call	0xb88	; 0xb88 <error_led>
			}
			
			if (abs(adc_run_dist) < SETVOL_TOL) {
    1cd8:	80 91 e1 01 	lds	r24, 0x01E1	; 0x8001e1 <adc_run_dist>
    1cdc:	90 91 e2 01 	lds	r25, 0x01E2	; 0x8001e2 <adc_run_dist+0x1>
    1ce0:	89 2b       	or	r24, r25
    1ce2:	29 f4       	brne	.+10     	; 0x1cee <fsm+0x306>
				set_motor_off();
    1ce4:	0e 94 5d 05 	call	0xaba	; 0xaba <set_motor_off>
				FSM_STATE = STATE_INIT;
    1ce8:	10 92 1c 02 	sts	0x021C, r1	; 0x80021c <FSM_STATE>
				break;
    1cec:	6a c0       	rjmp	.+212    	; 0x1dc2 <fsm+0x3da>
			}
			

			if (CMD_REC_IR){
    1cee:	80 91 ad 01 	lds	r24, 0x01AD	; 0x8001ad <CMD_REC_IR>
    1cf2:	88 23       	and	r24, r24
    1cf4:	09 f4       	brne	.+2      	; 0x1cf8 <fsm+0x310>
    1cf6:	43 c0       	rjmp	.+134    	; 0x1d7e <fsm+0x396>
				get_ir_cmd_idx(irmp_data, &cmd_idx_tmp_stat, &cmd_idx_tmp, &keyset_idx_tmp);
    1cf8:	0f 2e       	mov	r0, r31
    1cfa:	f0 eb       	ldi	r31, 0xB0	; 176
    1cfc:	ef 2e       	mov	r14, r31
    1cfe:	f1 e0       	ldi	r31, 0x01	; 1
    1d00:	ff 2e       	mov	r15, r31
    1d02:	f0 2d       	mov	r31, r0
    1d04:	01 eb       	ldi	r16, 0xB1	; 177
    1d06:	11 e0       	ldi	r17, 0x01	; 1
    1d08:	2f ea       	ldi	r18, 0xAF	; 175
    1d0a:	31 e0       	ldi	r19, 0x01	; 1
    1d0c:	40 91 4b 03 	lds	r20, 0x034B	; 0x80034b <irmp_data>
    1d10:	50 91 4c 03 	lds	r21, 0x034C	; 0x80034c <irmp_data+0x1>
    1d14:	60 91 4d 03 	lds	r22, 0x034D	; 0x80034d <irmp_data+0x2>
    1d18:	70 91 4e 03 	lds	r23, 0x034E	; 0x80034e <irmp_data+0x3>
    1d1c:	80 91 4f 03 	lds	r24, 0x034F	; 0x80034f <irmp_data+0x4>
    1d20:	90 91 50 03 	lds	r25, 0x0350	; 0x800350 <irmp_data+0x5>
    1d24:	0e 94 0a 0c 	call	0x1814	; 0x1814 <get_ir_cmd_idx>
				
				if (cmd_idx_tmp_stat){
    1d28:	80 91 af 01 	lds	r24, 0x01AF	; 0x8001af <cmd_idx_tmp_stat>
    1d2c:	88 23       	and	r24, r24
    1d2e:	11 f1       	breq	.+68     	; 0x1d74 <fsm+0x38c>
					if (cmd_idx_tmp == CMD_IDX_VOLUP || cmd_idx_tmp == CMD_IDX_VOLDOWN){
    1d30:	80 91 b1 01 	lds	r24, 0x01B1	; 0x8001b1 <cmd_idx_tmp>
    1d34:	82 30       	cpi	r24, 0x02	; 2
    1d36:	18 f4       	brcc	.+6      	; 0x1d3e <fsm+0x356>
						//Ignore command
						CMD_REC_IR = 0;
    1d38:	10 92 ad 01 	sts	0x01AD, r1	; 0x8001ad <CMD_REC_IR>
    1d3c:	1b c0       	rjmp	.+54     	; 0x1d74 <fsm+0x38c>
					}
					else if (cmd_idx_tmp == CMD_IDX_SETVOL){
    1d3e:	82 30       	cpi	r24, 0x02	; 2
    1d40:	c9 f4       	brne	.+50     	; 0x1d74 <fsm+0x38c>
						//Retrigger of setvolume, possibly with a new target value
						//execute the complete setvol cmd!
						strcpy(tmp_cmd_str, cmd_set[cmd_idx_tmp].cmd_word);
    1d42:	67 e2       	ldi	r22, 0x27	; 39
    1d44:	71 e0       	ldi	r23, 0x01	; 1
    1d46:	87 eb       	ldi	r24, 0xB7	; 183
    1d48:	91 e0       	ldi	r25, 0x01	; 1
    1d4a:	0e 94 3f 19 	call	0x327e	; 0x327e <strcpy>
						strcat(tmp_cmd_str, ir_keyset[keyset_idx_tmp].arg_str);
    1d4e:	60 91 b0 01 	lds	r22, 0x01B0	; 0x8001b0 <keyset_idx_tmp>
    1d52:	81 e2       	ldi	r24, 0x21	; 33
    1d54:	68 9f       	mul	r22, r24
    1d56:	b0 01       	movw	r22, r0
    1d58:	11 24       	eor	r1, r1
    1d5a:	67 5a       	subi	r22, 0xA7	; 167
    1d5c:	7c 4f       	sbci	r23, 0xFC	; 252
    1d5e:	87 eb       	ldi	r24, 0xB7	; 183
    1d60:	91 e0       	ldi	r25, 0x01	; 1
    1d62:	0e 94 2b 19 	call	0x3256	; 0x3256 <strcat>
						
						//Pass the data to cmd parser
						cmd_parser(tmp_cmd_str);
    1d66:	87 eb       	ldi	r24, 0xB7	; 183
    1d68:	91 e0       	ldi	r25, 0x01	; 1
    1d6a:	0e 94 12 0a 	call	0x1424	; 0x1424 <cmd_parser>
						CMD_REC_IR = 0;
    1d6e:	10 92 ad 01 	sts	0x01AD, r1	; 0x8001ad <CMD_REC_IR>
						break;
    1d72:	27 c0       	rjmp	.+78     	; 0x1dc2 <fsm+0x3da>
					}
				}
				
				//Other IR Command than VOLUP, VOLDOWN or SETVOl
				//Stop motor go to init and process the cmd
				set_motor_off();
    1d74:	0e 94 5d 05 	call	0xaba	; 0xaba <set_motor_off>
				FSM_STATE = STATE_INIT;
    1d78:	10 92 1c 02 	sts	0x021C, r1	; 0x80021c <FSM_STATE>
				break;
    1d7c:	22 c0       	rjmp	.+68     	; 0x1dc2 <fsm+0x3da>
				
			}

			if (CMD_REC_UART){
    1d7e:	80 91 ae 01 	lds	r24, 0x01AE	; 0x8001ae <CMD_REC_UART>
    1d82:	88 23       	and	r24, r24
    1d84:	f1 f0       	breq	.+60     	; 0x1dc2 <fsm+0x3da>
				//UART
				//make a copy of uart line buffer, peek_volctrl modifies the string
				strcpy(line_buf_tmp, uart0_line_buf);
    1d86:	63 e2       	ldi	r22, 0x23	; 35
    1d88:	73 e0       	ldi	r23, 0x03	; 3
    1d8a:	ce 01       	movw	r24, r28
    1d8c:	01 96       	adiw	r24, 0x01	; 1
    1d8e:	0e 94 3f 19 	call	0x327e	; 0x327e <strcpy>
				cmd_idx_tmp = peek_volctrl(line_buf_tmp);
    1d92:	ce 01       	movw	r24, r28
    1d94:	01 96       	adiw	r24, 0x01	; 1
    1d96:	0e 94 02 0b 	call	0x1604	; 0x1604 <peek_volctrl>
    1d9a:	80 93 b1 01 	sts	0x01B1, r24	; 0x8001b1 <cmd_idx_tmp>
				
				if (cmd_idx_tmp == CMD_IDX_VOLUP || cmd_idx_tmp == CMD_IDX_VOLDOWN){
    1d9e:	82 30       	cpi	r24, 0x02	; 2
    1da0:	18 f4       	brcc	.+6      	; 0x1da8 <fsm+0x3c0>
					//Dismiss command
					CMD_REC_UART = 0;
    1da2:	10 92 ae 01 	sts	0x01AE, r1	; 0x8001ae <CMD_REC_UART>
    1da6:	09 c0       	rjmp	.+18     	; 0x1dba <fsm+0x3d2>
				} 
				else if (cmd_idx_tmp == CMD_IDX_SETVOL){
    1da8:	82 30       	cpi	r24, 0x02	; 2
    1daa:	39 f4       	brne	.+14     	; 0x1dba <fsm+0x3d2>
					//Execute Setvol CMD -> retrigger
					cmd_parser(uart0_line_buf);
    1dac:	83 e2       	ldi	r24, 0x23	; 35
    1dae:	93 e0       	ldi	r25, 0x03	; 3
    1db0:	0e 94 12 0a 	call	0x1424	; 0x1424 <cmd_parser>
					CMD_REC_UART = 0;
    1db4:	10 92 ae 01 	sts	0x01AE, r1	; 0x8001ae <CMD_REC_UART>
					break;
    1db8:	04 c0       	rjmp	.+8      	; 0x1dc2 <fsm+0x3da>
				}
				
				//Other UART Command than VOLUP or VOLDOWN
				//Stop motor go to init and process the cmd
				//inc_timer_stop();
				set_motor_off();
    1dba:	0e 94 5d 05 	call	0xaba	; 0xaba <set_motor_off>
				FSM_STATE = STATE_INIT;
    1dbe:	10 92 1c 02 	sts	0x021C, r1	; 0x80021c <FSM_STATE>
				break;
		}
		default: break;
	}
    1dc2:	a8 96       	adiw	r28, 0x28	; 40
    1dc4:	0f b6       	in	r0, 0x3f	; 63
    1dc6:	f8 94       	cli
    1dc8:	de bf       	out	0x3e, r29	; 62
    1dca:	0f be       	out	0x3f, r0	; 63
    1dcc:	cd bf       	out	0x3d, r28	; 61
    1dce:	df 91       	pop	r29
    1dd0:	cf 91       	pop	r28
    1dd2:	1f 91       	pop	r17
    1dd4:	0f 91       	pop	r16
    1dd6:	ff 90       	pop	r15
    1dd8:	ef 90       	pop	r14
    1dda:	df 90       	pop	r13
    1ddc:	08 95       	ret

00001dde <irmp_store_bit>:
        first_bit = value;
    }
    else
#endif

    if (irmp_bit >= irmp_param.address_offset && irmp_bit < irmp_param.address_end)
    1dde:	20 91 0e 02 	lds	r18, 0x020E	; 0x80020e <irmp_param+0x9>
    1de2:	90 91 16 02 	lds	r25, 0x0216	; 0x800216 <irmp_bit>
    1de6:	92 17       	cp	r25, r18
    1de8:	48 f1       	brcs	.+82     	; 0x1e3c <irmp_store_bit+0x5e>
    1dea:	30 91 0f 02 	lds	r19, 0x020F	; 0x80020f <irmp_param+0xa>
    1dee:	93 17       	cp	r25, r19
    1df0:	28 f5       	brcc	.+74     	; 0x1e3c <irmp_store_bit+0x5e>
    {
        if (irmp_param.lsb_first)
    1df2:	30 91 14 02 	lds	r19, 0x0214	; 0x800214 <irmp_param+0xf>
    1df6:	33 23       	and	r19, r19
    1df8:	a9 f0       	breq	.+42     	; 0x1e24 <irmp_store_bit+0x46>
        {
            irmp_tmp_address |= (((uint_fast16_t) (value)) << (irmp_bit - irmp_param.address_offset));   // CV wants cast
    1dfa:	48 2f       	mov	r20, r24
    1dfc:	50 e0       	ldi	r21, 0x00	; 0
    1dfe:	69 2f       	mov	r22, r25
    1e00:	62 1b       	sub	r22, r18
    1e02:	9a 01       	movw	r18, r20
    1e04:	02 c0       	rjmp	.+4      	; 0x1e0a <irmp_store_bit+0x2c>
    1e06:	22 0f       	add	r18, r18
    1e08:	33 1f       	adc	r19, r19
    1e0a:	6a 95       	dec	r22
    1e0c:	e2 f7       	brpl	.-8      	; 0x1e06 <irmp_store_bit+0x28>
    1e0e:	40 91 fa 01 	lds	r20, 0x01FA	; 0x8001fa <irmp_tmp_address>
    1e12:	50 91 fb 01 	lds	r21, 0x01FB	; 0x8001fb <irmp_tmp_address+0x1>
    1e16:	24 2b       	or	r18, r20
    1e18:	35 2b       	or	r19, r21
    1e1a:	30 93 fb 01 	sts	0x01FB, r19	; 0x8001fb <irmp_tmp_address+0x1>
    1e1e:	20 93 fa 01 	sts	0x01FA, r18	; 0x8001fa <irmp_tmp_address>
    1e22:	38 c0       	rjmp	.+112    	; 0x1e94 <irmp_store_bit+0xb6>
        }
        else
        {
            irmp_tmp_address <<= 1;
            irmp_tmp_address |= value;
    1e24:	20 91 fa 01 	lds	r18, 0x01FA	; 0x8001fa <irmp_tmp_address>
    1e28:	30 91 fb 01 	lds	r19, 0x01FB	; 0x8001fb <irmp_tmp_address+0x1>
    1e2c:	22 0f       	add	r18, r18
    1e2e:	33 1f       	adc	r19, r19
    1e30:	28 2b       	or	r18, r24
    1e32:	30 93 fb 01 	sts	0x01FB, r19	; 0x8001fb <irmp_tmp_address+0x1>
    1e36:	20 93 fa 01 	sts	0x01FA, r18	; 0x8001fa <irmp_tmp_address>
    1e3a:	2c c0       	rjmp	.+88     	; 0x1e94 <irmp_store_bit+0xb6>
        }
    }
    else if (irmp_bit >= irmp_param.command_offset && irmp_bit < irmp_param.command_end)
    1e3c:	20 91 10 02 	lds	r18, 0x0210	; 0x800210 <irmp_param+0xb>
    1e40:	92 17       	cp	r25, r18
    1e42:	40 f1       	brcs	.+80     	; 0x1e94 <irmp_store_bit+0xb6>
    1e44:	30 91 11 02 	lds	r19, 0x0211	; 0x800211 <irmp_param+0xc>
    1e48:	93 17       	cp	r25, r19
    1e4a:	20 f5       	brcc	.+72     	; 0x1e94 <irmp_store_bit+0xb6>
    {
        if (irmp_param.lsb_first)
    1e4c:	30 91 14 02 	lds	r19, 0x0214	; 0x800214 <irmp_param+0xf>
    1e50:	33 23       	and	r19, r19
    1e52:	a9 f0       	breq	.+42     	; 0x1e7e <irmp_store_bit+0xa0>
                irmp_tmp_id |= (((uint_fast16_t) (value)) << (irmp_bit - 32));   // CV wants cast
            }
            else
#endif
            {
                irmp_tmp_command |= (((uint_fast16_t) (value)) << (irmp_bit - irmp_param.command_offset));   // CV wants cast
    1e54:	48 2f       	mov	r20, r24
    1e56:	50 e0       	ldi	r21, 0x00	; 0
    1e58:	69 2f       	mov	r22, r25
    1e5a:	62 1b       	sub	r22, r18
    1e5c:	9a 01       	movw	r18, r20
    1e5e:	02 c0       	rjmp	.+4      	; 0x1e64 <irmp_store_bit+0x86>
    1e60:	22 0f       	add	r18, r18
    1e62:	33 1f       	adc	r19, r19
    1e64:	6a 95       	dec	r22
    1e66:	e2 f7       	brpl	.-8      	; 0x1e60 <irmp_store_bit+0x82>
    1e68:	40 91 f8 01 	lds	r20, 0x01F8	; 0x8001f8 <irmp_tmp_command>
    1e6c:	50 91 f9 01 	lds	r21, 0x01F9	; 0x8001f9 <irmp_tmp_command+0x1>
    1e70:	24 2b       	or	r18, r20
    1e72:	35 2b       	or	r19, r21
    1e74:	30 93 f9 01 	sts	0x01F9, r19	; 0x8001f9 <irmp_tmp_command+0x1>
    1e78:	20 93 f8 01 	sts	0x01F8, r18	; 0x8001f8 <irmp_tmp_command>
    1e7c:	0b c0       	rjmp	.+22     	; 0x1e94 <irmp_store_bit+0xb6>
            }
        }
        else
        {
            irmp_tmp_command <<= 1;
            irmp_tmp_command |= value;
    1e7e:	20 91 f8 01 	lds	r18, 0x01F8	; 0x8001f8 <irmp_tmp_command>
    1e82:	30 91 f9 01 	lds	r19, 0x01F9	; 0x8001f9 <irmp_tmp_command+0x1>
    1e86:	22 0f       	add	r18, r18
    1e88:	33 1f       	adc	r19, r19
    1e8a:	28 2b       	or	r18, r24
    1e8c:	30 93 f9 01 	sts	0x01F9, r19	; 0x8001f9 <irmp_tmp_command+0x1>
    1e90:	20 93 f8 01 	sts	0x01F8, r18	; 0x8001f8 <irmp_tmp_command>
    }
    else
#endif

#if IRMP_SUPPORT_SAMSUNG_PROTOCOL == 1
    if (irmp_param.protocol == IRMP_SAMSUNG_PROTOCOL && irmp_bit >= SAMSUNG_ID_OFFSET && irmp_bit < SAMSUNG_ID_OFFSET + SAMSUNG_ID_LEN)
    1e94:	20 91 05 02 	lds	r18, 0x0205	; 0x800205 <irmp_param>
    1e98:	23 30       	cpi	r18, 0x03	; 3
    1e9a:	c9 f4       	brne	.+50     	; 0x1ece <irmp_store_bit+0xf0>
    1e9c:	2f ee       	ldi	r18, 0xEF	; 239
    1e9e:	29 0f       	add	r18, r25
    1ea0:	24 30       	cpi	r18, 0x04	; 4
    1ea2:	08 f0       	brcs	.+2      	; 0x1ea6 <irmp_store_bit+0xc8>
    1ea4:	6d c0       	rjmp	.+218    	; 0x1f80 <irmp_store_bit+0x1a2>
    {
        irmp_tmp_id |= (((uint_fast16_t) (value)) << (irmp_bit - SAMSUNG_ID_OFFSET));                    // store with LSB first
    1ea6:	28 2f       	mov	r18, r24
    1ea8:	30 e0       	ldi	r19, 0x00	; 0
    1eaa:	8f ee       	ldi	r24, 0xEF	; 239
    1eac:	89 0f       	add	r24, r25
    1eae:	02 c0       	rjmp	.+4      	; 0x1eb4 <irmp_store_bit+0xd6>
    1eb0:	22 0f       	add	r18, r18
    1eb2:	33 1f       	adc	r19, r19
    1eb4:	8a 95       	dec	r24
    1eb6:	e2 f7       	brpl	.-8      	; 0x1eb0 <irmp_store_bit+0xd2>
    1eb8:	40 91 f6 01 	lds	r20, 0x01F6	; 0x8001f6 <irmp_tmp_id>
    1ebc:	50 91 f7 01 	lds	r21, 0x01F7	; 0x8001f7 <irmp_tmp_id+0x1>
    1ec0:	24 2b       	or	r18, r20
    1ec2:	35 2b       	or	r19, r21
    1ec4:	30 93 f7 01 	sts	0x01F7, r19	; 0x8001f7 <irmp_tmp_id+0x1>
    1ec8:	20 93 f6 01 	sts	0x01F6, r18	; 0x8001f6 <irmp_tmp_id>
    1ecc:	59 c0       	rjmp	.+178    	; 0x1f80 <irmp_store_bit+0x1a2>
    }
    else
#endif

#if IRMP_SUPPORT_KASEIKYO_PROTOCOL == 1
    if (irmp_param.protocol == IRMP_KASEIKYO_PROTOCOL)
    1ece:	25 30       	cpi	r18, 0x05	; 5
    1ed0:	09 f0       	breq	.+2      	; 0x1ed4 <irmp_store_bit+0xf6>
    1ed2:	56 c0       	rjmp	.+172    	; 0x1f80 <irmp_store_bit+0x1a2>
    {
        if (irmp_bit >= 20 && irmp_bit < 24)
    1ed4:	2c ee       	ldi	r18, 0xEC	; 236
    1ed6:	29 0f       	add	r18, r25
    1ed8:	24 30       	cpi	r18, 0x04	; 4
    1eda:	a0 f4       	brcc	.+40     	; 0x1f04 <irmp_store_bit+0x126>
        {
            irmp_tmp_command |= (((uint_fast16_t) (value)) << (irmp_bit - 8));      // store 4 system bits (genre 1) in upper nibble with LSB first
    1edc:	28 2f       	mov	r18, r24
    1ede:	30 e0       	ldi	r19, 0x00	; 0
    1ee0:	48 ef       	ldi	r20, 0xF8	; 248
    1ee2:	49 0f       	add	r20, r25
    1ee4:	02 c0       	rjmp	.+4      	; 0x1eea <irmp_store_bit+0x10c>
    1ee6:	22 0f       	add	r18, r18
    1ee8:	33 1f       	adc	r19, r19
    1eea:	4a 95       	dec	r20
    1eec:	e2 f7       	brpl	.-8      	; 0x1ee6 <irmp_store_bit+0x108>
    1eee:	40 91 f8 01 	lds	r20, 0x01F8	; 0x8001f8 <irmp_tmp_command>
    1ef2:	50 91 f9 01 	lds	r21, 0x01F9	; 0x8001f9 <irmp_tmp_command+0x1>
    1ef6:	24 2b       	or	r18, r20
    1ef8:	35 2b       	or	r19, r21
    1efa:	30 93 f9 01 	sts	0x01F9, r19	; 0x8001f9 <irmp_tmp_command+0x1>
    1efe:	20 93 f8 01 	sts	0x01F8, r18	; 0x8001f8 <irmp_tmp_command>
    1f02:	12 c0       	rjmp	.+36     	; 0x1f28 <irmp_store_bit+0x14a>
        }
        else if (irmp_bit >= 24 && irmp_bit < 28)
    1f04:	28 ee       	ldi	r18, 0xE8	; 232
    1f06:	29 0f       	add	r18, r25
    1f08:	24 30       	cpi	r18, 0x04	; 4
    1f0a:	70 f4       	brcc	.+28     	; 0x1f28 <irmp_store_bit+0x14a>
        {
            genre2 |= (((uint_fast8_t) (value)) << (irmp_bit - 20));                // store 4 system bits (genre 2) in upper nibble with LSB first
    1f0c:	28 2f       	mov	r18, r24
    1f0e:	30 e0       	ldi	r19, 0x00	; 0
    1f10:	4c ee       	ldi	r20, 0xEC	; 236
    1f12:	49 0f       	add	r20, r25
    1f14:	02 c0       	rjmp	.+4      	; 0x1f1a <irmp_store_bit+0x13c>
    1f16:	22 0f       	add	r18, r18
    1f18:	33 1f       	adc	r19, r19
    1f1a:	4a 95       	dec	r20
    1f1c:	e2 f7       	brpl	.-8      	; 0x1f16 <irmp_store_bit+0x138>
    1f1e:	30 91 ef 01 	lds	r19, 0x01EF	; 0x8001ef <genre2>
    1f22:	23 2b       	or	r18, r19
    1f24:	20 93 ef 01 	sts	0x01EF, r18	; 0x8001ef <genre2>
        }

        if (irmp_bit < KASEIKYO_COMPLETE_DATA_LEN)
    1f28:	90 33       	cpi	r25, 0x30	; 48
    1f2a:	50 f5       	brcc	.+84     	; 0x1f80 <irmp_store_bit+0x1a2>
        {
            if (value)
    1f2c:	88 23       	and	r24, r24
    1f2e:	a1 f0       	breq	.+40     	; 0x1f58 <irmp_store_bit+0x17a>
            {
                xor_check[irmp_bit / 8] |= 1 << (irmp_bit % 8);
    1f30:	e9 2f       	mov	r30, r25
    1f32:	e6 95       	lsr	r30
    1f34:	e6 95       	lsr	r30
    1f36:	e6 95       	lsr	r30
    1f38:	f0 e0       	ldi	r31, 0x00	; 0
    1f3a:	e0 51       	subi	r30, 0x10	; 16
    1f3c:	fe 4f       	sbci	r31, 0xFE	; 254
    1f3e:	89 2f       	mov	r24, r25
    1f40:	87 70       	andi	r24, 0x07	; 7
    1f42:	21 e0       	ldi	r18, 0x01	; 1
    1f44:	30 e0       	ldi	r19, 0x00	; 0
    1f46:	02 c0       	rjmp	.+4      	; 0x1f4c <irmp_store_bit+0x16e>
    1f48:	22 0f       	add	r18, r18
    1f4a:	33 1f       	adc	r19, r19
    1f4c:	8a 95       	dec	r24
    1f4e:	e2 f7       	brpl	.-8      	; 0x1f48 <irmp_store_bit+0x16a>
    1f50:	80 81       	ld	r24, Z
    1f52:	28 2b       	or	r18, r24
    1f54:	20 83       	st	Z, r18
    1f56:	14 c0       	rjmp	.+40     	; 0x1f80 <irmp_store_bit+0x1a2>
            }
            else
            {
                xor_check[irmp_bit / 8] &= ~(1 << (irmp_bit % 8));
    1f58:	e9 2f       	mov	r30, r25
    1f5a:	e6 95       	lsr	r30
    1f5c:	e6 95       	lsr	r30
    1f5e:	e6 95       	lsr	r30
    1f60:	f0 e0       	ldi	r31, 0x00	; 0
    1f62:	e0 51       	subi	r30, 0x10	; 16
    1f64:	fe 4f       	sbci	r31, 0xFE	; 254
    1f66:	89 2f       	mov	r24, r25
    1f68:	87 70       	andi	r24, 0x07	; 7
    1f6a:	21 e0       	ldi	r18, 0x01	; 1
    1f6c:	30 e0       	ldi	r19, 0x00	; 0
    1f6e:	02 c0       	rjmp	.+4      	; 0x1f74 <irmp_store_bit+0x196>
    1f70:	22 0f       	add	r18, r18
    1f72:	33 1f       	adc	r19, r19
    1f74:	8a 95       	dec	r24
    1f76:	e2 f7       	brpl	.-8      	; 0x1f70 <irmp_store_bit+0x192>
    1f78:	20 95       	com	r18
    1f7a:	80 81       	ld	r24, Z
    1f7c:	28 23       	and	r18, r24
    1f7e:	20 83       	st	Z, r18
#endif // IRMP_SUPPORT_MITSU_HEAVY_PROTOCOL
    {
        ;
    }

    irmp_bit++;
    1f80:	9f 5f       	subi	r25, 0xFF	; 255
    1f82:	90 93 16 02 	sts	0x0216, r25	; 0x800216 <irmp_bit>
    1f86:	08 95       	ret

00001f88 <irmp_init>:

#elif defined(_CHIBIOS_HAL_)
    // ChibiOS HAL automatically initializes all pins according to the board config file, no need to repeat here

#else                                                                   // AVR
    IRMP_PORT &= ~(1<<IRMP_BIT);                                        // deactivate pullup
    1f88:	5e 98       	cbi	0x0b, 6	; 11
    IRMP_DDR &= ~(1<<IRMP_BIT);                                         // set pin to input
    1f8a:	56 98       	cbi	0x0a, 6	; 10
    1f8c:	08 95       	ret

00001f8e <irmp_get_data>:
 *  @return    TRUE: successful, FALSE: failed
 *---------------------------------------------------------------------------------------------------------------------------------------------------
 */
uint_fast8_t
irmp_get_data (IRMP_DATA * irmp_data_p)
{
    1f8e:	fc 01       	movw	r30, r24
    uint_fast8_t   rtc = FALSE;

    if (irmp_ir_detected)
    1f90:	80 91 04 02 	lds	r24, 0x0204	; 0x800204 <irmp_ir_detected>
    1f94:	88 23       	and	r24, r24
    1f96:	09 f4       	brne	.+2      	; 0x1f9a <irmp_get_data+0xc>
    1f98:	b8 c0       	rjmp	.+368    	; 0x210a <irmp_get_data+0x17c>
    {
        switch (irmp_protocol)
    1f9a:	90 91 03 02 	lds	r25, 0x0203	; 0x800203 <irmp_protocol>
    1f9e:	93 30       	cpi	r25, 0x03	; 3
    1fa0:	59 f0       	breq	.+22     	; 0x1fb8 <irmp_get_data+0x2a>
    1fa2:	18 f4       	brcc	.+6      	; 0x1faa <irmp_get_data+0x1c>
    1fa4:	92 30       	cpi	r25, 0x02	; 2
    1fa6:	99 f1       	breq	.+102    	; 0x200e <irmp_get_data+0x80>
    1fa8:	8c c0       	rjmp	.+280    	; 0x20c2 <irmp_get_data+0x134>
    1faa:	97 30       	cpi	r25, 0x07	; 7
    1fac:	09 f4       	brne	.+2      	; 0x1fb0 <irmp_get_data+0x22>
    1fae:	80 c0       	rjmp	.+256    	; 0x20b0 <irmp_get_data+0x122>
    1fb0:	92 33       	cpi	r25, 0x32	; 50
    1fb2:	09 f4       	brne	.+2      	; 0x1fb6 <irmp_get_data+0x28>
    1fb4:	65 c0       	rjmp	.+202    	; 0x2080 <irmp_get_data+0xf2>
    1fb6:	85 c0       	rjmp	.+266    	; 0x20c2 <irmp_get_data+0x134>
        {
#if IRMP_SUPPORT_SAMSUNG_PROTOCOL == 1
            case IRMP_SAMSUNG_PROTOCOL:
                if ((irmp_command >> 8) == (~irmp_command & 0x00FF))
    1fb8:	20 91 ff 01 	lds	r18, 0x01FF	; 0x8001ff <irmp_command>
    1fbc:	30 91 00 02 	lds	r19, 0x0200	; 0x800200 <irmp_command+0x1>
    1fc0:	80 91 ff 01 	lds	r24, 0x01FF	; 0x8001ff <irmp_command>
    1fc4:	90 91 00 02 	lds	r25, 0x0200	; 0x800200 <irmp_command+0x1>
    1fc8:	23 2f       	mov	r18, r19
    1fca:	33 27       	eor	r19, r19
    1fcc:	80 95       	com	r24
    1fce:	90 95       	com	r25
    1fd0:	99 27       	eor	r25, r25
    1fd2:	28 17       	cp	r18, r24
    1fd4:	39 07       	cpc	r19, r25
    1fd6:	09 f0       	breq	.+2      	; 0x1fda <irmp_get_data+0x4c>
    1fd8:	88 c0       	rjmp	.+272    	; 0x20ea <irmp_get_data+0x15c>
                {
                    irmp_command &= 0xff;
    1fda:	80 91 ff 01 	lds	r24, 0x01FF	; 0x8001ff <irmp_command>
    1fde:	90 91 00 02 	lds	r25, 0x0200	; 0x800200 <irmp_command+0x1>
    1fe2:	99 27       	eor	r25, r25
    1fe4:	90 93 00 02 	sts	0x0200, r25	; 0x800200 <irmp_command+0x1>
    1fe8:	80 93 ff 01 	sts	0x01FF, r24	; 0x8001ff <irmp_command>
                    irmp_command |= irmp_id << 8;
    1fec:	80 91 fd 01 	lds	r24, 0x01FD	; 0x8001fd <irmp_id>
    1ff0:	90 91 fe 01 	lds	r25, 0x01FE	; 0x8001fe <irmp_id+0x1>
    1ff4:	20 91 ff 01 	lds	r18, 0x01FF	; 0x8001ff <irmp_command>
    1ff8:	30 91 00 02 	lds	r19, 0x0200	; 0x800200 <irmp_command+0x1>
    1ffc:	98 2f       	mov	r25, r24
    1ffe:	88 27       	eor	r24, r24
    2000:	82 2b       	or	r24, r18
    2002:	93 2b       	or	r25, r19
    2004:	90 93 00 02 	sts	0x0200, r25	; 0x800200 <irmp_command+0x1>
    2008:	80 93 ff 01 	sts	0x01FF, r24	; 0x8001ff <irmp_command>
    200c:	5a c0       	rjmp	.+180    	; 0x20c2 <irmp_get_data+0x134>
#endif
#endif

#if IRMP_SUPPORT_NEC_PROTOCOL == 1
            case IRMP_NEC_PROTOCOL:
                if ((irmp_command >> 8) == (~irmp_command & 0x00FF))
    200e:	20 91 ff 01 	lds	r18, 0x01FF	; 0x8001ff <irmp_command>
    2012:	30 91 00 02 	lds	r19, 0x0200	; 0x800200 <irmp_command+0x1>
    2016:	80 91 ff 01 	lds	r24, 0x01FF	; 0x8001ff <irmp_command>
    201a:	90 91 00 02 	lds	r25, 0x0200	; 0x800200 <irmp_command+0x1>
    201e:	23 2f       	mov	r18, r19
    2020:	33 27       	eor	r19, r19
    2022:	80 95       	com	r24
    2024:	90 95       	com	r25
    2026:	99 27       	eor	r25, r25
    2028:	28 17       	cp	r18, r24
    202a:	39 07       	cpc	r19, r25
    202c:	51 f4       	brne	.+20     	; 0x2042 <irmp_get_data+0xb4>
                {
                    irmp_command &= 0xff;
    202e:	80 91 ff 01 	lds	r24, 0x01FF	; 0x8001ff <irmp_command>
    2032:	90 91 00 02 	lds	r25, 0x0200	; 0x800200 <irmp_command+0x1>
    2036:	99 27       	eor	r25, r25
    2038:	90 93 00 02 	sts	0x0200, r25	; 0x800200 <irmp_command+0x1>
    203c:	80 93 ff 01 	sts	0x01FF, r24	; 0x8001ff <irmp_command>
    2040:	40 c0       	rjmp	.+128    	; 0x20c2 <irmp_get_data+0x134>
                    rtc = TRUE;
                }
                else if (irmp_address == 0x87EE)
    2042:	80 91 01 02 	lds	r24, 0x0201	; 0x800201 <irmp_address>
    2046:	90 91 02 02 	lds	r25, 0x0202	; 0x800202 <irmp_address+0x1>
    204a:	8e 3e       	cpi	r24, 0xEE	; 238
    204c:	97 48       	sbci	r25, 0x87	; 135
    204e:	09 f0       	breq	.+2      	; 0x2052 <irmp_get_data+0xc4>
    2050:	4c c0       	rjmp	.+152    	; 0x20ea <irmp_get_data+0x15c>
                {
#ifdef ANALYZE
                    ANALYZE_PRINTF ("Switching to APPLE protocol\n");
#endif // ANALYZE
                    irmp_protocol = IRMP_APPLE_PROTOCOL;
    2052:	8b e0       	ldi	r24, 0x0B	; 11
    2054:	80 93 03 02 	sts	0x0203, r24	; 0x800203 <irmp_protocol>
                    irmp_address = (irmp_command & 0xFF00) >> 8;
    2058:	80 91 ff 01 	lds	r24, 0x01FF	; 0x8001ff <irmp_command>
    205c:	90 91 00 02 	lds	r25, 0x0200	; 0x800200 <irmp_command+0x1>
    2060:	89 2f       	mov	r24, r25
    2062:	99 27       	eor	r25, r25
    2064:	90 93 02 02 	sts	0x0202, r25	; 0x800202 <irmp_address+0x1>
    2068:	80 93 01 02 	sts	0x0201, r24	; 0x800201 <irmp_address>
                    irmp_command &= 0x00FF;
    206c:	80 91 ff 01 	lds	r24, 0x01FF	; 0x8001ff <irmp_command>
    2070:	90 91 00 02 	lds	r25, 0x0200	; 0x800200 <irmp_command+0x1>
    2074:	99 27       	eor	r25, r25
    2076:	90 93 00 02 	sts	0x0200, r25	; 0x800200 <irmp_command+0x1>
    207a:	80 93 ff 01 	sts	0x01FF, r24	; 0x8001ff <irmp_command>
    207e:	21 c0       	rjmp	.+66     	; 0x20c2 <irmp_get_data+0x134>
#endif


#if IRMP_SUPPORT_NEC_PROTOCOL == 1
            case IRMP_VINCENT_PROTOCOL:
                if ((irmp_command >> 8) == (irmp_command & 0x00FF))
    2080:	20 91 ff 01 	lds	r18, 0x01FF	; 0x8001ff <irmp_command>
    2084:	30 91 00 02 	lds	r19, 0x0200	; 0x800200 <irmp_command+0x1>
    2088:	80 91 ff 01 	lds	r24, 0x01FF	; 0x8001ff <irmp_command>
    208c:	90 91 00 02 	lds	r25, 0x0200	; 0x800200 <irmp_command+0x1>
    2090:	23 2f       	mov	r18, r19
    2092:	33 27       	eor	r19, r19
    2094:	99 27       	eor	r25, r25
    2096:	28 17       	cp	r18, r24
    2098:	39 07       	cpc	r19, r25
    209a:	39 f5       	brne	.+78     	; 0x20ea <irmp_get_data+0x15c>
                {
                    irmp_command &= 0xff;
    209c:	80 91 ff 01 	lds	r24, 0x01FF	; 0x8001ff <irmp_command>
    20a0:	90 91 00 02 	lds	r25, 0x0200	; 0x800200 <irmp_command+0x1>
    20a4:	99 27       	eor	r25, r25
    20a6:	90 93 00 02 	sts	0x0200, r25	; 0x800200 <irmp_command+0x1>
    20aa:	80 93 ff 01 	sts	0x01FF, r24	; 0x8001ff <irmp_command>
    20ae:	09 c0       	rjmp	.+18     	; 0x20c2 <irmp_get_data+0x134>
                }
                break;
#endif
#if IRMP_SUPPORT_RC5_PROTOCOL == 1
            case IRMP_RC5_PROTOCOL:
                irmp_address &= ~0x20;                              // clear toggle bit
    20b0:	80 91 01 02 	lds	r24, 0x0201	; 0x800201 <irmp_address>
    20b4:	90 91 02 02 	lds	r25, 0x0202	; 0x800202 <irmp_address+0x1>
    20b8:	8f 7d       	andi	r24, 0xDF	; 223
    20ba:	90 93 02 02 	sts	0x0202, r25	; 0x800202 <irmp_address+0x1>
    20be:	80 93 01 02 	sts	0x0201, r24	; 0x800201 <irmp_address>
            }
        }

        if (rtc)
        {
            irmp_data_p->protocol = irmp_protocol;
    20c2:	80 91 03 02 	lds	r24, 0x0203	; 0x800203 <irmp_protocol>
    20c6:	80 83       	st	Z, r24
            irmp_data_p->address  = irmp_address;
    20c8:	80 91 01 02 	lds	r24, 0x0201	; 0x800201 <irmp_address>
    20cc:	90 91 02 02 	lds	r25, 0x0202	; 0x800202 <irmp_address+0x1>
    20d0:	92 83       	std	Z+2, r25	; 0x02
    20d2:	81 83       	std	Z+1, r24	; 0x01
            irmp_data_p->command  = irmp_command;
    20d4:	80 91 ff 01 	lds	r24, 0x01FF	; 0x8001ff <irmp_command>
    20d8:	90 91 00 02 	lds	r25, 0x0200	; 0x800200 <irmp_command+0x1>
    20dc:	94 83       	std	Z+4, r25	; 0x04
    20de:	83 83       	std	Z+3, r24	; 0x03
            irmp_data_p->flags    = irmp_flags;
    20e0:	80 91 fc 01 	lds	r24, 0x01FC	; 0x8001fc <irmp_flags>
    20e4:	85 83       	std	Z+5, r24	; 0x05
    20e6:	81 e0       	ldi	r24, 0x01	; 1
    20e8:	03 c0       	rjmp	.+6      	; 0x20f0 <irmp_get_data+0x162>
        }
        else
        {
            irmp_protocol = IRMP_UNKNOWN_PROTOCOL;
    20ea:	10 92 03 02 	sts	0x0203, r1	; 0x800203 <irmp_protocol>
    20ee:	80 e0       	ldi	r24, 0x00	; 0
        }

        irmp_command  = 0;                                      // don't reset irmp_protocol here, needed for detection of NEC & JVC repetition frames!
    20f0:	10 92 00 02 	sts	0x0200, r1	; 0x800200 <irmp_command+0x1>
    20f4:	10 92 ff 01 	sts	0x01FF, r1	; 0x8001ff <irmp_command>
        irmp_address  = 0;
    20f8:	10 92 02 02 	sts	0x0202, r1	; 0x800202 <irmp_address+0x1>
    20fc:	10 92 01 02 	sts	0x0201, r1	; 0x800201 <irmp_address>
        irmp_flags    = 0;
    2100:	10 92 fc 01 	sts	0x01FC, r1	; 0x8001fc <irmp_flags>

        irmp_ir_detected = FALSE;
    2104:	10 92 04 02 	sts	0x0204, r1	; 0x800204 <irmp_ir_detected>
    2108:	08 95       	ret
 *---------------------------------------------------------------------------------------------------------------------------------------------------
 */
uint_fast8_t
irmp_get_data (IRMP_DATA * irmp_data_p)
{
    uint_fast8_t   rtc = FALSE;
    210a:	80 e0       	ldi	r24, 0x00	; 0

        irmp_ir_detected = FALSE;
    }

    return rtc;
}
    210c:	08 95       	ret

0000210e <irmp_ISR>:
 *  @details  ISR routine, called 10000 times per second
 *---------------------------------------------------------------------------------------------------------------------------------------------------
 */
uint_fast8_t
irmp_ISR (void)
{
    210e:	cf 93       	push	r28
    2110:	df 93       	push	r29
    irmp_input = input(IRMP_GPIO_STRUCT->IDR)
#elif defined(__MBED__)
    //irmp_input = inputPin;
    irmp_input = gpio_read (&gpioIRin);
#else
    irmp_input = input(IRMP_PIN);
    2112:	89 b1       	in	r24, 0x09	; 9
    }
#endif // IRMP_USE_CALLBACK == 1

    irmp_log(irmp_input);                                                       // log ir signal, if IRMP_LOGGING defined

    if (! irmp_ir_detected)                                                     // ir code already detected?
    2114:	90 91 04 02 	lds	r25, 0x0204	; 0x800204 <irmp_ir_detected>
    2118:	91 11       	cpse	r25, r1
    211a:	96 c3       	rjmp	.+1836   	; 0x2848 <irmp_ISR+0x73a>
    irmp_input = input(IRMP_GPIO_STRUCT->IDR)
#elif defined(__MBED__)
    //irmp_input = inputPin;
    irmp_input = gpio_read (&gpioIRin);
#else
    irmp_input = input(IRMP_PIN);
    211c:	80 74       	andi	r24, 0x40	; 64

    irmp_log(irmp_input);                                                       // log ir signal, if IRMP_LOGGING defined

    if (! irmp_ir_detected)                                                     // ir code already detected?
    {                                                                           // no...
        if (! irmp_start_bit_detected)                                          // start bit detected?
    211e:	90 91 ee 01 	lds	r25, 0x01EE	; 0x8001ee <irmp_start_bit_detected.2350>
    2122:	91 11       	cpse	r25, r1
    2124:	38 c0       	rjmp	.+112    	; 0x2196 <irmp_ISR+0x88>
        {                                                                       // no...
            if (! irmp_input)                                                   // receiving burst?
    2126:	81 11       	cpse	r24, r1
    2128:	06 c0       	rjmp	.+12     	; 0x2136 <irmp_ISR+0x28>
                if (! irmp_pulse_time)
                {
                    ANALYZE_PRINTF("%8.3fms [starting pulse]\n", (double) (time_counter * 1000) / F_INTERRUPTS);
                }
#endif // ANALYZE
                irmp_pulse_time++;                                              // increment counter
    212a:	80 91 ed 01 	lds	r24, 0x01ED	; 0x8001ed <irmp_pulse_time.2353>
    212e:	8f 5f       	subi	r24, 0xFF	; 255
    2130:	80 93 ed 01 	sts	0x01ED, r24	; 0x8001ed <irmp_pulse_time.2353>
    2134:	89 c3       	rjmp	.+1810   	; 0x2848 <irmp_ISR+0x73a>
            }
            else
            {                                                                   // no...
                if (irmp_pulse_time)                                            // it's dark....
    2136:	80 91 ed 01 	lds	r24, 0x01ED	; 0x8001ed <irmp_pulse_time.2353>
    213a:	88 23       	and	r24, r24
    213c:	e9 f0       	breq	.+58     	; 0x2178 <irmp_ISR+0x6a>
                {                                                               // set flags for counting the time of darkness...
                    irmp_start_bit_detected = 1;
    213e:	81 e0       	ldi	r24, 0x01	; 1
    2140:	80 93 ee 01 	sts	0x01EE, r24	; 0x8001ee <irmp_start_bit_detected.2350>
                    wait_for_start_space    = 1;
    2144:	80 93 ec 01 	sts	0x01EC, r24	; 0x8001ec <wait_for_start_space.2352>
                    wait_for_space          = 0;
    2148:	10 92 eb 01 	sts	0x01EB, r1	; 0x8001eb <wait_for_space.2351>
                    irmp_tmp_command        = 0;
    214c:	10 92 f9 01 	sts	0x01F9, r1	; 0x8001f9 <irmp_tmp_command+0x1>
    2150:	10 92 f8 01 	sts	0x01F8, r1	; 0x8001f8 <irmp_tmp_command>
                    irmp_tmp_address        = 0;
    2154:	10 92 fb 01 	sts	0x01FB, r1	; 0x8001fb <irmp_tmp_address+0x1>
    2158:	10 92 fa 01 	sts	0x01FA, r1	; 0x8001fa <irmp_tmp_address>
#if IRMP_SUPPORT_KASEIKYO_PROTOCOL == 1
                    genre2                  = 0;
    215c:	10 92 ef 01 	sts	0x01EF, r1	; 0x8001ef <genre2>
#endif
#if IRMP_SUPPORT_SAMSUNG_PROTOCOL == 1
                    irmp_tmp_id = 0;
    2160:	10 92 f7 01 	sts	0x01F7, r1	; 0x8001f7 <irmp_tmp_id+0x1>
    2164:	10 92 f6 01 	sts	0x01F6, r1	; 0x8001f6 <irmp_tmp_id>
#endif
#if IRMP_SUPPORT_LGAIR_PROTOCOL == 1
                    irmp_lgair_command      = 0;
                    irmp_lgair_address      = 0;
#endif
                    irmp_bit                = 0xff;
    2168:	9f ef       	ldi	r25, 0xFF	; 255
    216a:	90 93 16 02 	sts	0x0216, r25	; 0x800216 <irmp_bit>
                    irmp_pause_time         = 1;                                // 1st pause: set to 1, not to 0!
    216e:	80 93 ea 01 	sts	0x01EA, r24	; 0x8001ea <irmp_pause_time.2354>
#if IRMP_SUPPORT_RC5_PROTOCOL == 1 || IRMP_SUPPORT_S100_PROTOCOL == 1
                    rc5_cmd_bit6            = 0;                                // fm 2010-03-07: bugfix: reset it after incomplete RC5 frame!
    2172:	10 92 e9 01 	sts	0x01E9, r1	; 0x8001e9 <rc5_cmd_bit6.2359>
    2176:	68 c3       	rjmp	.+1744   	; 0x2848 <irmp_ISR+0x73a>
#endif
                }
                else
                {
                    if (key_repetition_len < 0xFFFF)                            // avoid overflow of counter
    2178:	80 91 e7 01 	lds	r24, 0x01E7	; 0x8001e7 <key_repetition_len.2357>
    217c:	90 91 e8 01 	lds	r25, 0x01E8	; 0x8001e8 <key_repetition_len.2357+0x1>
    2180:	8f 3f       	cpi	r24, 0xFF	; 255
    2182:	2f ef       	ldi	r18, 0xFF	; 255
    2184:	92 07       	cpc	r25, r18
    2186:	09 f4       	brne	.+2      	; 0x218a <irmp_ISR+0x7c>
    2188:	5f c3       	rjmp	.+1726   	; 0x2848 <irmp_ISR+0x73a>
                    {
                        key_repetition_len++;
    218a:	01 96       	adiw	r24, 0x01	; 1
    218c:	90 93 e8 01 	sts	0x01E8, r25	; 0x8001e8 <key_repetition_len.2357+0x1>
    2190:	80 93 e7 01 	sts	0x01E7, r24	; 0x8001e7 <key_repetition_len.2357>
    2194:	59 c3       	rjmp	.+1714   	; 0x2848 <irmp_ISR+0x73a>
                }
            }
        }
        else
        {
            if (wait_for_start_space)                                           // we have received start bit...
    2196:	90 91 ec 01 	lds	r25, 0x01EC	; 0x8001ec <wait_for_start_space.2352>
    219a:	99 23       	and	r25, r25
    219c:	09 f4       	brne	.+2      	; 0x21a0 <irmp_ISR+0x92>
    219e:	ad c0       	rjmp	.+346    	; 0x22fa <irmp_ISR+0x1ec>
            {                                                                   // ...and are counting the time of darkness
                if (irmp_input)                                                 // still dark?
    21a0:	88 23       	and	r24, r24
    21a2:	79 f0       	breq	.+30     	; 0x21c2 <irmp_ISR+0xb4>
                {                                                               // yes
                    irmp_pause_time++;                                          // increment counter
    21a4:	80 91 ea 01 	lds	r24, 0x01EA	; 0x8001ea <irmp_pause_time.2354>
    21a8:	8f 5f       	subi	r24, 0xFF	; 255
    21aa:	80 93 ea 01 	sts	0x01EA, r24	; 0x8001ea <irmp_pause_time.2354>

#if IRMP_SUPPORT_NIKON_PROTOCOL == 1
                    if (((irmp_pulse_time < NIKON_START_BIT_PULSE_LEN_MIN || irmp_pulse_time > NIKON_START_BIT_PULSE_LEN_MAX) && irmp_pause_time > IRMP_TIMEOUT_LEN) ||
                         irmp_pause_time > IRMP_TIMEOUT_NIKON_LEN)
#else
                    if (irmp_pause_time > IRMP_TIMEOUT_LEN)                     // timeout?
    21ae:	8a 3e       	cpi	r24, 0xEA	; 234
    21b0:	08 f4       	brcc	.+2      	; 0x21b4 <irmp_ISR+0xa6>
    21b2:	43 c2       	rjmp	.+1158   	; 0x263a <irmp_ISR+0x52c>
                            ANALYZE_PRINTF ("%8.3fms error 1: pause after start bit pulse %d too long: %d\n", (double) (time_counter * 1000) / F_INTERRUPTS, irmp_pulse_time, irmp_pause_time);
                            ANALYZE_ONLY_NORMAL_PUTCHAR ('\n');
#endif // ANALYZE
                        }

                        irmp_start_bit_detected = 0;                            // reset flags, let's wait for another start bit
    21b4:	10 92 ee 01 	sts	0x01EE, r1	; 0x8001ee <irmp_start_bit_detected.2350>
                        irmp_pulse_time         = 0;
    21b8:	10 92 ed 01 	sts	0x01ED, r1	; 0x8001ed <irmp_pulse_time.2353>
                        irmp_pause_time         = 0;
    21bc:	10 92 ea 01 	sts	0x01EA, r1	; 0x8001ea <irmp_pause_time.2354>
    21c0:	43 c3       	rjmp	.+1670   	; 0x2848 <irmp_ISR+0x73a>
#ifdef ANALYZE
                    ANALYZE_PRINTF ("%8.3fms [start-bit: pulse = %2d, pause = %2d]\n", (double) (time_counter * 1000) / F_INTERRUPTS, irmp_pulse_time, irmp_pause_time);
#endif // ANALYZE

#if IRMP_SUPPORT_SIRCS_PROTOCOL == 1
                    if (irmp_pulse_time >= SIRCS_START_BIT_PULSE_LEN_MIN && irmp_pulse_time <= SIRCS_START_BIT_PULSE_LEN_MAX &&
    21c2:	80 91 ed 01 	lds	r24, 0x01ED	; 0x8001ed <irmp_pulse_time.2353>
    21c6:	91 ee       	ldi	r25, 0xE1	; 225
    21c8:	98 0f       	add	r25, r24
    21ca:	9b 30       	cpi	r25, 0x0B	; 11
    21cc:	30 f4       	brcc	.+12     	; 0x21da <irmp_ISR+0xcc>
    21ce:	90 91 ea 01 	lds	r25, 0x01EA	; 0x8001ea <irmp_pause_time.2354>
    21d2:	96 50       	subi	r25, 0x06	; 6
    21d4:	95 30       	cpi	r25, 0x05	; 5
    21d6:	08 f4       	brcc	.+2      	; 0x21da <irmp_ISR+0xcc>
    21d8:	3a c3       	rjmp	.+1652   	; 0x284e <irmp_ISR+0x740>
                    }
                    else
#endif // IRMP_SUPPORT_JVC_PROTOCOL == 1

#if IRMP_SUPPORT_NEC_PROTOCOL == 1
                    if (irmp_pulse_time >= NEC_START_BIT_PULSE_LEN_MIN && irmp_pulse_time <= NEC_START_BIT_PULSE_LEN_MAX &&
    21da:	92 ea       	ldi	r25, 0xA2	; 162
    21dc:	98 0f       	add	r25, r24
    21de:	94 35       	cpi	r25, 0x54	; 84
    21e0:	58 f4       	brcc	.+22     	; 0x21f8 <irmp_ISR+0xea>
                        irmp_pause_time >= NEC_START_BIT_PAUSE_LEN_MIN && irmp_pause_time <= NEC_START_BIT_PAUSE_LEN_MAX)
    21e2:	90 91 ea 01 	lds	r25, 0x01EA	; 0x8001ea <irmp_pause_time.2354>
                    }
                    else
#endif // IRMP_SUPPORT_JVC_PROTOCOL == 1

#if IRMP_SUPPORT_NEC_PROTOCOL == 1
                    if (irmp_pulse_time >= NEC_START_BIT_PULSE_LEN_MIN && irmp_pulse_time <= NEC_START_BIT_PULSE_LEN_MAX &&
    21e6:	22 ed       	ldi	r18, 0xD2	; 210
    21e8:	29 0f       	add	r18, r25
    21ea:	2c 32       	cpi	r18, 0x2C	; 44
    21ec:	08 f4       	brcc	.+2      	; 0x21f0 <irmp_ISR+0xe2>
    21ee:	32 c3       	rjmp	.+1636   	; 0x2854 <irmp_ISR+0x746>
                                        NEC_START_BIT_PAUSE_LEN_MIN, NEC_START_BIT_PAUSE_LEN_MAX);
#endif // ANALYZE
                        irmp_param_p = (IRMP_PARAMETER *) &nec_param;
#endif
                    }
                    else if (irmp_pulse_time >= NEC_START_BIT_PULSE_LEN_MIN        && irmp_pulse_time <= NEC_START_BIT_PULSE_LEN_MAX &&
    21f0:	97 51       	subi	r25, 0x17	; 23
    21f2:	97 31       	cpi	r25, 0x17	; 23
    21f4:	08 f4       	brcc	.+2      	; 0x21f8 <irmp_ISR+0xea>
    21f6:	31 c3       	rjmp	.+1634   	; 0x285a <irmp_ISR+0x74c>
                    }
                    else
#endif // IRMP_SUPPORT_NIKON_PROTOCOL == 1

#if IRMP_SUPPORT_SAMSUNG_PROTOCOL == 1
                    if (irmp_pulse_time >= SAMSUNG_START_BIT_PULSE_LEN_MIN && irmp_pulse_time <= SAMSUNG_START_BIT_PULSE_LEN_MAX &&
    21f8:	94 ec       	ldi	r25, 0xC4	; 196
    21fa:	98 0f       	add	r25, r24
    21fc:	90 31       	cpi	r25, 0x10	; 16
    21fe:	30 f4       	brcc	.+12     	; 0x220c <irmp_ISR+0xfe>
    2200:	90 91 ea 01 	lds	r25, 0x01EA	; 0x8001ea <irmp_pause_time.2354>
    2204:	9c 53       	subi	r25, 0x3C	; 60
    2206:	90 31       	cpi	r25, 0x10	; 16
    2208:	08 f4       	brcc	.+2      	; 0x220c <irmp_ISR+0xfe>
    220a:	2a c3       	rjmp	.+1620   	; 0x2860 <irmp_ISR+0x752>
                    }
                    else
#endif // IRMP_SUPPORT_MATSUSHITA_PROTOCOL == 1

#if IRMP_SUPPORT_KASEIKYO_PROTOCOL == 1
                    if (irmp_pulse_time >= KASEIKYO_START_BIT_PULSE_LEN_MIN && irmp_pulse_time <= KASEIKYO_START_BIT_PULSE_LEN_MAX &&
    220c:	98 ed       	ldi	r25, 0xD8	; 216
    220e:	98 0f       	add	r25, r24
    2210:	97 31       	cpi	r25, 0x17	; 23
    2212:	30 f4       	brcc	.+12     	; 0x2220 <irmp_ISR+0x112>
    2214:	90 91 ea 01 	lds	r25, 0x01EA	; 0x8001ea <irmp_pause_time.2354>
    2218:	93 51       	subi	r25, 0x13	; 19
    221a:	9d 30       	cpi	r25, 0x0D	; 13
    221c:	08 f4       	brcc	.+2      	; 0x2220 <irmp_ISR+0x112>
    221e:	23 c3       	rjmp	.+1606   	; 0x2866 <irmp_ISR+0x758>
                    }
                    else
#endif // IRMP_SUPPORT_S100_PROTOCOL == 1

#if IRMP_SUPPORT_RC5_PROTOCOL == 1
                    if (((irmp_pulse_time >= RC5_START_BIT_LEN_MIN     && irmp_pulse_time <= RC5_START_BIT_LEN_MAX) ||
    2220:	95 ef       	ldi	r25, 0xF5	; 245
    2222:	98 0f       	add	r25, r24
    2224:	96 30       	cpi	r25, 0x06	; 6
    2226:	20 f0       	brcs	.+8      	; 0x2230 <irmp_ISR+0x122>
    2228:	9a ee       	ldi	r25, 0xEA	; 234
    222a:	98 0f       	add	r25, r24
    222c:	9b 30       	cpi	r25, 0x0B	; 11
    222e:	00 f5       	brcc	.+64     	; 0x2270 <irmp_ISR+0x162>
                         (irmp_pulse_time >= 2 * RC5_START_BIT_LEN_MIN && irmp_pulse_time <= 2 * RC5_START_BIT_LEN_MAX)) &&
                        ((irmp_pause_time >= RC5_START_BIT_LEN_MIN     && irmp_pause_time <= RC5_START_BIT_LEN_MAX) ||
    2230:	90 91 ea 01 	lds	r25, 0x01EA	; 0x8001ea <irmp_pause_time.2354>
                    else
#endif // IRMP_SUPPORT_S100_PROTOCOL == 1

#if IRMP_SUPPORT_RC5_PROTOCOL == 1
                    if (((irmp_pulse_time >= RC5_START_BIT_LEN_MIN     && irmp_pulse_time <= RC5_START_BIT_LEN_MAX) ||
                         (irmp_pulse_time >= 2 * RC5_START_BIT_LEN_MIN && irmp_pulse_time <= 2 * RC5_START_BIT_LEN_MAX)) &&
    2234:	25 ef       	ldi	r18, 0xF5	; 245
    2236:	29 0f       	add	r18, r25
    2238:	26 30       	cpi	r18, 0x06	; 6
    223a:	20 f0       	brcs	.+8      	; 0x2244 <irmp_ISR+0x136>
                        ((irmp_pause_time >= RC5_START_BIT_LEN_MIN     && irmp_pause_time <= RC5_START_BIT_LEN_MAX) ||
    223c:	2a ee       	ldi	r18, 0xEA	; 234
    223e:	29 0f       	add	r18, r25
    2240:	2b 30       	cpi	r18, 0x0B	; 11
    2242:	b0 f4       	brcc	.+44     	; 0x2270 <irmp_ISR+0x162>
                                            2 * RC5_START_BIT_LEN_MIN, 2 * RC5_START_BIT_LEN_MAX);
#endif // ANALYZE
                        }

                        irmp_param_p = (IRMP_PARAMETER *) &rc5_param;
                        last_pause = irmp_pause_time;
    2244:	90 93 e6 01 	sts	0x01E6, r25	; 0x8001e6 <last_pause.2360>

                        if ((irmp_pulse_time > RC5_START_BIT_LEN_MAX && irmp_pulse_time <= 2 * RC5_START_BIT_LEN_MAX) ||
    2248:	81 51       	subi	r24, 0x11	; 17
    224a:	80 31       	cpi	r24, 0x10	; 16
    224c:	18 f0       	brcs	.+6      	; 0x2254 <irmp_ISR+0x146>
    224e:	91 51       	subi	r25, 0x11	; 17
    2250:	90 31       	cpi	r25, 0x10	; 16
    2252:	40 f4       	brcc	.+16     	; 0x2264 <irmp_ISR+0x156>
                            (irmp_pause_time > RC5_START_BIT_LEN_MAX && irmp_pause_time <= 2 * RC5_START_BIT_LEN_MAX))
                        {
                            last_value  = 0;
    2254:	10 92 e5 01 	sts	0x01E5, r1	; 0x8001e5 <last_value.2361>
                            rc5_cmd_bit6 = 1<<6;
    2258:	80 e4       	ldi	r24, 0x40	; 64
    225a:	80 93 e9 01 	sts	0x01E9, r24	; 0x8001e9 <rc5_cmd_bit6.2359>
                                            RC5_START_BIT_LEN_MIN, RC5_START_BIT_LEN_MAX,
                                            2 * RC5_START_BIT_LEN_MIN, 2 * RC5_START_BIT_LEN_MAX);
#endif // ANALYZE
                        }

                        irmp_param_p = (IRMP_PARAMETER *) &rc5_param;
    225e:	6b e3       	ldi	r22, 0x3B	; 59
    2260:	77 e0       	ldi	r23, 0x07	; 7

                        if ((irmp_pulse_time > RC5_START_BIT_LEN_MAX && irmp_pulse_time <= 2 * RC5_START_BIT_LEN_MAX) ||
                            (irmp_pause_time > RC5_START_BIT_LEN_MAX && irmp_pause_time <= 2 * RC5_START_BIT_LEN_MAX))
                        {
                            last_value  = 0;
                            rc5_cmd_bit6 = 1<<6;
    2262:	03 c3       	rjmp	.+1542   	; 0x286a <irmp_ISR+0x75c>
                        }
                        else
                        {
                            last_value  = 1;
    2264:	81 e0       	ldi	r24, 0x01	; 1
    2266:	80 93 e5 01 	sts	0x01E5, r24	; 0x8001e5 <last_value.2361>
                                            RC5_START_BIT_LEN_MIN, RC5_START_BIT_LEN_MAX,
                                            2 * RC5_START_BIT_LEN_MIN, 2 * RC5_START_BIT_LEN_MAX);
#endif // ANALYZE
                        }

                        irmp_param_p = (IRMP_PARAMETER *) &rc5_param;
    226a:	6b e3       	ldi	r22, 0x3B	; 59
    226c:	77 e0       	ldi	r23, 0x07	; 7
    226e:	fd c2       	rjmp	.+1530   	; 0x286a <irmp_ISR+0x75c>
                    }
                    else
#endif // IRMP_SUPPORT_RC5_PROTOCOL == 1

#if IRMP_SUPPORT_RCII_PROTOCOL == 1
                    if ((irmp_pulse_time >= RCII_START_BIT_PULSE_LEN_MIN && irmp_pulse_time <= RCII_START_BIT_PULSE_LEN_MAX) &&
    2270:	86 50       	subi	r24, 0x06	; 6
    2272:	84 30       	cpi	r24, 0x04	; 4
    2274:	80 f4       	brcc	.+32     	; 0x2296 <irmp_ISR+0x188>
                        (irmp_pause_time >= RCII_START_BIT_PAUSE_LEN_MIN && irmp_pause_time <= RCII_START_BIT_PAUSE_LEN_MAX))
    2276:	80 91 ea 01 	lds	r24, 0x01EA	; 0x8001ea <irmp_pause_time.2354>
                    }
                    else
#endif // IRMP_SUPPORT_RC5_PROTOCOL == 1

#if IRMP_SUPPORT_RCII_PROTOCOL == 1
                    if ((irmp_pulse_time >= RCII_START_BIT_PULSE_LEN_MIN && irmp_pulse_time <= RCII_START_BIT_PULSE_LEN_MAX) &&
    227a:	9d ed       	ldi	r25, 0xDD	; 221
    227c:	98 0f       	add	r25, r24
    227e:	97 30       	cpi	r25, 0x07	; 7
    2280:	50 f4       	brcc	.+20     	; 0x2296 <irmp_ISR+0x188>
                        ANALYZE_PRINTF ("protocol = RCII, start bit timings: pulse: %3d - %3d, pause: %3d - %3d\n",
                                        RCII_START_BIT_PULSE_LEN_MIN, RCII_START_BIT_PULSE_LEN_MAX,
                                        RCII_START_BIT_PAUSE_LEN_MIN, RCII_START_BIT_PAUSE_LEN_MAX)
#endif // ANALYZE
                        irmp_param_p = (IRMP_PARAMETER *) &rcii_param;
                        last_pause = irmp_pause_time;
    2282:	80 93 e6 01 	sts	0x01E6, r24	; 0x8001e6 <last_pause.2360>
                        waiting_for_2nd_pulse = 1;
    2286:	81 e0       	ldi	r24, 0x01	; 1
    2288:	80 93 e4 01 	sts	0x01E4, r24	; 0x8001e4 <waiting_for_2nd_pulse.2362>
                        last_value  = 1;
    228c:	80 93 e5 01 	sts	0x01E5, r24	; 0x8001e5 <last_value.2361>
#ifdef ANALYZE
                        ANALYZE_PRINTF ("protocol = RCII, start bit timings: pulse: %3d - %3d, pause: %3d - %3d\n",
                                        RCII_START_BIT_PULSE_LEN_MIN, RCII_START_BIT_PULSE_LEN_MAX,
                                        RCII_START_BIT_PAUSE_LEN_MIN, RCII_START_BIT_PAUSE_LEN_MAX)
#endif // ANALYZE
                        irmp_param_p = (IRMP_PARAMETER *) &rcii_param;
    2290:	6a e2       	ldi	r22, 0x2A	; 42
    2292:	77 e0       	ldi	r23, 0x07	; 7
                        last_pause = irmp_pause_time;
                        waiting_for_2nd_pulse = 1;
                        last_value  = 1;
    2294:	ea c2       	rjmp	.+1492   	; 0x286a <irmp_ISR+0x75c>
#endif // IRMP_SUPPORT_RCMM_PROTOCOL == 1
                    {
#ifdef ANALYZE
                        ANALYZE_PRINTF ("protocol = UNKNOWN\n");
#endif // ANALYZE
                        irmp_start_bit_detected = 0;                            // wait for another start bit...
    2296:	10 92 ee 01 	sts	0x01EE, r1	; 0x8001ee <irmp_start_bit_detected.2350>
                        ANALYZE_PRINTF ("complete_len:   %3d\n", irmp_param.complete_len);
                        ANALYZE_PRINTF ("stop_bit:       %3d\n", irmp_param.stop_bit);
#endif // ANALYZE
                    }

                    irmp_bit = 0;
    229a:	10 92 16 02 	sts	0x0216, r1	; 0x800216 <irmp_bit>

#if IRMP_SUPPORT_MANCHESTER == 1
                    if ((irmp_param.flags & IRMP_PARAM_FLAG_IS_MANCHESTER) &&
    229e:	80 91 15 02 	lds	r24, 0x0215	; 0x800215 <irmp_param+0x10>
    22a2:	80 ff       	sbrs	r24, 0
    22a4:	22 c0       	rjmp	.+68     	; 0x22ea <irmp_ISR+0x1dc>
                         irmp_param.protocol != IRMP_RUWIDO_PROTOCOL && // Manchester, but not RUWIDO
    22a6:	90 91 05 02 	lds	r25, 0x0205	; 0x800205 <irmp_param>
                    }

                    irmp_bit = 0;

#if IRMP_SUPPORT_MANCHESTER == 1
                    if ((irmp_param.flags & IRMP_PARAM_FLAG_IS_MANCHESTER) &&
    22aa:	97 31       	cpi	r25, 0x17	; 23
    22ac:	f1 f0       	breq	.+60     	; 0x22ea <irmp_ISR+0x1dc>
                         irmp_param.protocol != IRMP_RUWIDO_PROTOCOL && // Manchester, but not RUWIDO
    22ae:	99 30       	cpi	r25, 0x09	; 9
    22b0:	e1 f0       	breq	.+56     	; 0x22ea <irmp_ISR+0x1dc>
                         irmp_param.protocol != IRMP_RC6_PROTOCOL /*** &&    // Manchester, but not RC6
                         irmp_param.protocol != IRMP_RCII_PROTOCOL ****/)     // Manchester, but not RCII
                    {
                        if (irmp_pause_time > irmp_param.pulse_1_len_max && irmp_pause_time <= 2 * irmp_param.pulse_1_len_max)
    22b2:	20 91 07 02 	lds	r18, 0x0207	; 0x800207 <irmp_param+0x2>
    22b6:	40 91 ea 01 	lds	r20, 0x01EA	; 0x8001ea <irmp_pause_time.2354>
    22ba:	24 17       	cp	r18, r20
    22bc:	70 f4       	brcc	.+28     	; 0x22da <irmp_ISR+0x1cc>
    22be:	50 e0       	ldi	r21, 0x00	; 0
    22c0:	30 e0       	ldi	r19, 0x00	; 0
    22c2:	22 0f       	add	r18, r18
    22c4:	33 1f       	adc	r19, r19
    22c6:	24 17       	cp	r18, r20
    22c8:	35 07       	cpc	r19, r21
    22ca:	3c f0       	brlt	.+14     	; 0x22da <irmp_ISR+0x1cc>
#ifdef ANALYZE
                            ANALYZE_PRINTF ("%8.3fms [bit %2d: pulse = %3d, pause = %3d] ", (double) (time_counter * 1000) / F_INTERRUPTS, irmp_bit, irmp_pulse_time, irmp_pause_time);
                            ANALYZE_PUTCHAR ((irmp_param.flags & IRMP_PARAM_FLAG_1ST_PULSE_IS_1) ? '0' : '1');
                            ANALYZE_NEWLINE ();
#endif // ANALYZE
                            irmp_store_bit ((irmp_param.flags & IRMP_PARAM_FLAG_1ST_PULSE_IS_1) ? 0 : 1);
    22cc:	86 95       	lsr	r24
    22ce:	81 70       	andi	r24, 0x01	; 1
    22d0:	91 e0       	ldi	r25, 0x01	; 1
    22d2:	89 27       	eor	r24, r25
    22d4:	0e 94 ef 0e 	call	0x1dde	; 0x1dde <irmp_store_bit>
    22d8:	08 c0       	rjmp	.+16     	; 0x22ea <irmp_ISR+0x1dc>
                        }
                        else if (! last_value)  // && irmp_pause_time >= irmp_param.pause_1_len_min && irmp_pause_time <= irmp_param.pause_1_len_max)
    22da:	90 91 e5 01 	lds	r25, 0x01E5	; 0x8001e5 <last_value.2361>
    22de:	91 11       	cpse	r25, r1
    22e0:	04 c0       	rjmp	.+8      	; 0x22ea <irmp_ISR+0x1dc>
#ifdef ANALYZE
                            ANALYZE_PRINTF ("%8.3fms [bit %2d: pulse = %3d, pause = %3d] ", (double) (time_counter * 1000) / F_INTERRUPTS, irmp_bit, irmp_pulse_time, irmp_pause_time);
                            ANALYZE_PUTCHAR ((irmp_param.flags & IRMP_PARAM_FLAG_1ST_PULSE_IS_1) ? '1' : '0');
                            ANALYZE_NEWLINE ();
#endif // ANALYZE
                            irmp_store_bit ((irmp_param.flags & IRMP_PARAM_FLAG_1ST_PULSE_IS_1) ? 1 : 0);
    22e2:	86 95       	lsr	r24
    22e4:	81 70       	andi	r24, 0x01	; 1
    22e6:	0e 94 ef 0e 	call	0x1dde	; 0x1dde <irmp_store_bit>
#endif // IRMP_SUPPORT_THOMSON_PROTOCOL == 1
                    {
                        ;                                                       // else do nothing
                    }

                    irmp_pulse_time = 1;                                        // set counter to 1, not 0
    22ea:	81 e0       	ldi	r24, 0x01	; 1
    22ec:	80 93 ed 01 	sts	0x01ED, r24	; 0x8001ed <irmp_pulse_time.2353>
                    irmp_pause_time = 0;
    22f0:	10 92 ea 01 	sts	0x01EA, r1	; 0x8001ea <irmp_pause_time.2354>
                    wait_for_start_space = 0;
    22f4:	10 92 ec 01 	sts	0x01EC, r1	; 0x8001ec <wait_for_start_space.2352>
    22f8:	9b c1       	rjmp	.+822    	; 0x2630 <irmp_ISR+0x522>
                }
            }
            else if (wait_for_space)                                            // the data section....
    22fa:	90 91 eb 01 	lds	r25, 0x01EB	; 0x8001eb <wait_for_space.2351>
    22fe:	99 23       	and	r25, r25
    2300:	09 f4       	brne	.+2      	; 0x2304 <irmp_ISR+0x1f6>
    2302:	72 c1       	rjmp	.+740    	; 0x25e8 <irmp_ISR+0x4da>
            {                                                                   // counting the time of darkness....
                uint_fast8_t got_light = FALSE;

                if (irmp_input)                                                 // still dark?
    2304:	88 23       	and	r24, r24
    2306:	09 f4       	brne	.+2      	; 0x230a <irmp_ISR+0x1fc>
    2308:	b7 c2       	rjmp	.+1390   	; 0x2878 <irmp_ISR+0x76a>
                {                                                               // yes...
                    if (irmp_bit == irmp_param.complete_len && irmp_param.stop_bit == 1)
    230a:	90 91 12 02 	lds	r25, 0x0212	; 0x800212 <irmp_param+0xd>
    230e:	20 91 16 02 	lds	r18, 0x0216	; 0x800216 <irmp_bit>
    2312:	92 13       	cpse	r25, r18
    2314:	1c c0       	rjmp	.+56     	; 0x234e <irmp_ISR+0x240>
    2316:	80 91 13 02 	lds	r24, 0x0213	; 0x800213 <irmp_param+0xe>
    231a:	81 30       	cpi	r24, 0x01	; 1
    231c:	c1 f4       	brne	.+48     	; 0x234e <irmp_ISR+0x240>
                    {
                        if (
    231e:	80 91 15 02 	lds	r24, 0x0215	; 0x800215 <irmp_param+0x10>
    2322:	80 fd       	sbrc	r24, 0
    2324:	0a c0       	rjmp	.+20     	; 0x233a <irmp_ISR+0x22c>
                            (irmp_param.flags & IRMP_PARAM_FLAG_IS_MANCHESTER) ||
#endif
#if IRMP_SUPPORT_SERIAL == 1
                            (irmp_param.flags & IRMP_PARAM_FLAG_IS_SERIAL) ||
#endif
                            (irmp_pulse_time >= irmp_param.pulse_0_len_min && irmp_pulse_time <= irmp_param.pulse_0_len_max))
    2326:	80 91 ed 01 	lds	r24, 0x01ED	; 0x8001ed <irmp_pulse_time.2353>
                {                                                               // yes...
                    if (irmp_bit == irmp_param.complete_len && irmp_param.stop_bit == 1)
                    {
                        if (
#if IRMP_SUPPORT_MANCHESTER == 1
                            (irmp_param.flags & IRMP_PARAM_FLAG_IS_MANCHESTER) ||
    232a:	90 91 0a 02 	lds	r25, 0x020A	; 0x80020a <irmp_param+0x5>
    232e:	89 17       	cp	r24, r25
    2330:	38 f0       	brcs	.+14     	; 0x2340 <irmp_ISR+0x232>
#endif
#if IRMP_SUPPORT_SERIAL == 1
                            (irmp_param.flags & IRMP_PARAM_FLAG_IS_SERIAL) ||
#endif
                            (irmp_pulse_time >= irmp_param.pulse_0_len_min && irmp_pulse_time <= irmp_param.pulse_0_len_max))
    2332:	90 91 0b 02 	lds	r25, 0x020B	; 0x80020b <irmp_param+0x6>
    2336:	98 17       	cp	r25, r24
    2338:	18 f0       	brcs	.+6      	; 0x2340 <irmp_ISR+0x232>
                            if (! (irmp_param.flags & IRMP_PARAM_FLAG_IS_MANCHESTER))
                            {
                                ANALYZE_PRINTF ("stop bit detected\n");
                            }
#endif // ANALYZE
                            irmp_param.stop_bit = 0;
    233a:	10 92 13 02 	sts	0x0213, r1	; 0x800213 <irmp_param+0xe>
    233e:	7d c1       	rjmp	.+762    	; 0x263a <irmp_ISR+0x52c>
                        {
#ifdef ANALYZE
                            ANALYZE_PRINTF ("error: stop bit timing wrong, irmp_bit = %d, irmp_pulse_time = %d, pulse_0_len_min = %d, pulse_0_len_max = %d\n",
                                            irmp_bit, irmp_pulse_time, irmp_param.pulse_0_len_min, irmp_param.pulse_0_len_max);
#endif // ANALYZE
                            irmp_start_bit_detected = 0;                        // wait for another start bit...
    2340:	10 92 ee 01 	sts	0x01EE, r1	; 0x8001ee <irmp_start_bit_detected.2350>
                            irmp_pulse_time         = 0;
    2344:	10 92 ed 01 	sts	0x01ED, r1	; 0x8001ed <irmp_pulse_time.2353>
                            irmp_pause_time         = 0;
    2348:	10 92 ea 01 	sts	0x01EA, r1	; 0x8001ea <irmp_pause_time.2354>
    234c:	7d c2       	rjmp	.+1274   	; 0x2848 <irmp_ISR+0x73a>
                        }
                    }
                    else
                    {
                        irmp_pause_time++;                                                          // increment counter
    234e:	80 91 ea 01 	lds	r24, 0x01EA	; 0x8001ea <irmp_pause_time.2354>
    2352:	8f 5f       	subi	r24, 0xFF	; 255
    2354:	80 93 ea 01 	sts	0x01EA, r24	; 0x8001ea <irmp_pause_time.2354>

#if IRMP_SUPPORT_SIRCS_PROTOCOL == 1
                        if (irmp_param.protocol == IRMP_SIRCS_PROTOCOL &&                           // Sony has a variable number of bits:
    2358:	30 91 05 02 	lds	r19, 0x0205	; 0x800205 <irmp_param>
    235c:	31 30       	cpi	r19, 0x01	; 1
    235e:	31 f5       	brne	.+76     	; 0x23ac <irmp_ISR+0x29e>
    2360:	48 2f       	mov	r20, r24
    2362:	50 e0       	ldi	r21, 0x00	; 0
    2364:	4c 30       	cpi	r20, 0x0C	; 12
    2366:	51 05       	cpc	r21, r1
    2368:	0c f1       	brlt	.+66     	; 0x23ac <irmp_ISR+0x29e>
                            irmp_pause_time > SIRCS_PAUSE_LEN_MAX &&                                // minimum is 12
    236a:	2b 30       	cpi	r18, 0x0B	; 11
    236c:	f8 f0       	brcs	.+62     	; 0x23ac <irmp_ISR+0x29e>
                            irmp_bit >= 12 - 1)                                                     // pause too long?
                        {                                                                           // yes, break and close this frame
                            irmp_param.complete_len = irmp_bit + 1;                                 // set new complete length
    236e:	e5 e0       	ldi	r30, 0x05	; 5
    2370:	f2 e0       	ldi	r31, 0x02	; 2
    2372:	81 e0       	ldi	r24, 0x01	; 1
    2374:	82 0f       	add	r24, r18
    2376:	85 87       	std	Z+13, r24	; 0x0d
                            got_light = TRUE;                                                       // this is a lie, but helps (generates stop bit)
                            irmp_tmp_address |= (irmp_bit - SIRCS_MINIMUM_DATA_LEN + 1) << 8;       // new: store number of additional bits in upper byte of address!
    2378:	82 2f       	mov	r24, r18
    237a:	90 e0       	ldi	r25, 0x00	; 0
    237c:	0b 97       	sbiw	r24, 0x0b	; 11
    237e:	98 2f       	mov	r25, r24
    2380:	88 27       	eor	r24, r24
    2382:	40 91 fa 01 	lds	r20, 0x01FA	; 0x8001fa <irmp_tmp_address>
    2386:	50 91 fb 01 	lds	r21, 0x01FB	; 0x8001fb <irmp_tmp_address+0x1>
    238a:	84 2b       	or	r24, r20
    238c:	95 2b       	or	r25, r21
    238e:	90 93 fb 01 	sts	0x01FB, r25	; 0x8001fb <irmp_tmp_address+0x1>
    2392:	80 93 fa 01 	sts	0x01FA, r24	; 0x8001fa <irmp_tmp_address>
                            irmp_param.command_end = irmp_param.command_offset + irmp_bit + 1;      // correct command length
    2396:	83 85       	ldd	r24, Z+11	; 0x0b
    2398:	28 0f       	add	r18, r24
    239a:	2f 5f       	subi	r18, 0xFF	; 255
    239c:	24 87       	std	Z+12, r18	; 0x0c
                            irmp_pause_time = SIRCS_PAUSE_LEN_MAX - 1;                              // correct pause length
    239e:	8a e0       	ldi	r24, 0x0A	; 10
    23a0:	80 93 ea 01 	sts	0x01EA, r24	; 0x8001ea <irmp_pause_time.2354>
#ifdef ANALYZE
                    ANALYZE_PRINTF ("%8.3fms [bit %2d: pulse = %3d, pause = %3d] ", (double) (time_counter * 1000) / F_INTERRUPTS, irmp_bit, irmp_pulse_time, irmp_pause_time);
#endif // ANALYZE

#if IRMP_SUPPORT_MANCHESTER == 1
                    if ((irmp_param.flags & IRMP_PARAM_FLAG_IS_MANCHESTER))                                     // Manchester
    23a4:	80 89       	ldd	r24, Z+16	; 0x10
    23a6:	80 ff       	sbrs	r24, 0
    23a8:	e5 c0       	rjmp	.+458    	; 0x2574 <irmp_ISR+0x466>
    23aa:	6c c0       	rjmp	.+216    	; 0x2484 <irmp_ISR+0x376>
                            got_light = TRUE;                                                       // this is a lie, but helps (generates stop bit)
                        }
                        else
#endif
#if IRMP_SUPPORT_MANCHESTER == 1
                        if ((irmp_param.flags & IRMP_PARAM_FLAG_IS_MANCHESTER) &&
    23ac:	40 91 15 02 	lds	r20, 0x0215	; 0x800215 <irmp_param+0x10>
    23b0:	40 ff       	sbrs	r20, 0
    23b2:	1d c0       	rjmp	.+58     	; 0x23ee <irmp_ISR+0x2e0>
    23b4:	68 2f       	mov	r22, r24
    23b6:	70 e0       	ldi	r23, 0x00	; 0
    23b8:	40 91 09 02 	lds	r20, 0x0209	; 0x800209 <irmp_param+0x4>
    23bc:	50 e0       	ldi	r21, 0x00	; 0
    23be:	44 0f       	add	r20, r20
    23c0:	55 1f       	adc	r21, r21
    23c2:	64 17       	cp	r22, r20
    23c4:	75 07       	cpc	r23, r21
    23c6:	9c f0       	brlt	.+38     	; 0x23ee <irmp_ISR+0x2e0>
                            irmp_pause_time >= 2 * irmp_param.pause_1_len_max && irmp_bit >= irmp_param.complete_len - 2 && !irmp_param.stop_bit)
    23c8:	62 2f       	mov	r22, r18
    23ca:	70 e0       	ldi	r23, 0x00	; 0
    23cc:	49 2f       	mov	r20, r25
    23ce:	50 e0       	ldi	r21, 0x00	; 0
    23d0:	42 50       	subi	r20, 0x02	; 2
    23d2:	51 09       	sbc	r21, r1
    23d4:	64 17       	cp	r22, r20
    23d6:	75 07       	cpc	r23, r21
    23d8:	54 f0       	brlt	.+20     	; 0x23ee <irmp_ISR+0x2e0>
    23da:	40 91 13 02 	lds	r20, 0x0213	; 0x800213 <irmp_param+0xe>
    23de:	41 11       	cpse	r20, r1
    23e0:	06 c0       	rjmp	.+12     	; 0x23ee <irmp_ISR+0x2e0>
                        {                                                       // special manchester decoder
                            got_light = TRUE;                                   // this is a lie, but generates a stop bit ;-)
                            irmp_param.stop_bit = TRUE;                         // set flag
    23e2:	e5 e0       	ldi	r30, 0x05	; 5
    23e4:	f2 e0       	ldi	r31, 0x02	; 2
    23e6:	81 e0       	ldi	r24, 0x01	; 1
    23e8:	86 87       	std	Z+14, r24	; 0x0e
#ifdef ANALYZE
                    ANALYZE_PRINTF ("%8.3fms [bit %2d: pulse = %3d, pause = %3d] ", (double) (time_counter * 1000) / F_INTERRUPTS, irmp_bit, irmp_pulse_time, irmp_pause_time);
#endif // ANALYZE

#if IRMP_SUPPORT_MANCHESTER == 1
                    if ((irmp_param.flags & IRMP_PARAM_FLAG_IS_MANCHESTER))                                     // Manchester
    23ea:	80 89       	ldd	r24, Z+16	; 0x10
    23ec:	4b c0       	rjmp	.+150    	; 0x2484 <irmp_ISR+0x376>
                            got_light = TRUE;                                   // this is a lie, but generates a stop bit ;-)
                            irmp_param.stop_bit = TRUE;                         // set flag
                        }
                        else
#endif // IRMP_SUPPORT_MANCHESTER == 1
                        if (irmp_pause_time > IRMP_TIMEOUT_LEN)                 // timeout?
    23ee:	8a 3e       	cpi	r24, 0xEA	; 234
    23f0:	08 f4       	brcc	.+2      	; 0x23f4 <irmp_ISR+0x2e6>
    23f2:	23 c1       	rjmp	.+582    	; 0x263a <irmp_ISR+0x52c>
                        {                                                       // yes...
                            if (irmp_bit == irmp_param.complete_len - 1 && irmp_param.stop_bit == 0)
    23f4:	42 2f       	mov	r20, r18
    23f6:	50 e0       	ldi	r21, 0x00	; 0
    23f8:	89 2f       	mov	r24, r25
    23fa:	90 e0       	ldi	r25, 0x00	; 0
    23fc:	01 97       	sbiw	r24, 0x01	; 1
    23fe:	48 17       	cp	r20, r24
    2400:	59 07       	cpc	r21, r25
    2402:	41 f4       	brne	.+16     	; 0x2414 <irmp_ISR+0x306>
    2404:	80 91 13 02 	lds	r24, 0x0213	; 0x800213 <irmp_param+0xe>
    2408:	81 11       	cpse	r24, r1
    240a:	04 c0       	rjmp	.+8      	; 0x2414 <irmp_ISR+0x306>
                            {
                                irmp_bit++;
    240c:	2f 5f       	subi	r18, 0xFF	; 255
    240e:	20 93 16 02 	sts	0x0216, r18	; 0x800216 <irmp_bit>
    2412:	13 c1       	rjmp	.+550    	; 0x263a <irmp_ISR+0x52c>
                            }
#if IRMP_SUPPORT_NEC_PROTOCOL == 1
                            else if ((irmp_param.protocol == IRMP_NEC_PROTOCOL || irmp_param.protocol == IRMP_NEC42_PROTOCOL) && irmp_bit == 0)
    2414:	32 30       	cpi	r19, 0x02	; 2
    2416:	11 f0       	breq	.+4      	; 0x241c <irmp_ISR+0x30e>
    2418:	3c 31       	cpi	r19, 0x1C	; 28
    241a:	69 f5       	brne	.+90     	; 0x2476 <irmp_ISR+0x368>
    241c:	21 11       	cpse	r18, r1
    241e:	2b c0       	rjmp	.+86     	; 0x2476 <irmp_ISR+0x368>
                            {                                                               // it was a non-standard repetition frame
#ifdef ANALYZE                                                                              // with 4500s pause instead of 2250s
                                ANALYZE_PRINTF ("Detected non-standard repetition frame, switching to NEC repetition\n");
#endif // ANALYZE
                                if (key_repetition_len < NEC_FRAME_REPEAT_PAUSE_LEN_MAX)
    2420:	80 91 e7 01 	lds	r24, 0x01E7	; 0x8001e7 <key_repetition_len.2357>
    2424:	90 91 e8 01 	lds	r25, 0x01E8	; 0x8001e8 <key_repetition_len.2357+0x1>
    2428:	88 30       	cpi	r24, 0x08	; 8
    242a:	97 40       	sbci	r25, 0x07	; 7
    242c:	08 f5       	brcc	.+66     	; 0x2470 <irmp_ISR+0x362>
                                {
                                    irmp_param.stop_bit     = TRUE;                         // set flag
    242e:	e5 e0       	ldi	r30, 0x05	; 5
    2430:	f2 e0       	ldi	r31, 0x02	; 2
    2432:	81 e0       	ldi	r24, 0x01	; 1
    2434:	86 87       	std	Z+14, r24	; 0x0e
                                    irmp_param.protocol     = IRMP_NEC_PROTOCOL;            // switch protocol
    2436:	82 e0       	ldi	r24, 0x02	; 2
    2438:	80 83       	st	Z, r24
                                    irmp_param.complete_len = irmp_bit;                     // patch length: 16 or 17
    243a:	15 86       	std	Z+13, r1	; 0x0d
                                    irmp_tmp_address = last_irmp_address;                   // address is last address
    243c:	80 91 08 01 	lds	r24, 0x0108	; 0x800108 <last_irmp_address.2355>
    2440:	90 91 09 01 	lds	r25, 0x0109	; 0x800109 <last_irmp_address.2355+0x1>
    2444:	90 93 fb 01 	sts	0x01FB, r25	; 0x8001fb <irmp_tmp_address+0x1>
    2448:	80 93 fa 01 	sts	0x01FA, r24	; 0x8001fa <irmp_tmp_address>
                                    irmp_tmp_command = last_irmp_command;                   // command is last command
    244c:	80 91 06 01 	lds	r24, 0x0106	; 0x800106 <last_irmp_command.2356>
    2450:	90 91 07 01 	lds	r25, 0x0107	; 0x800107 <last_irmp_command.2356+0x1>
    2454:	90 93 f9 01 	sts	0x01F9, r25	; 0x8001f9 <irmp_tmp_command+0x1>
    2458:	80 93 f8 01 	sts	0x01F8, r24	; 0x8001f8 <irmp_tmp_command>
                                    irmp_flags |= IRMP_FLAG_REPETITION;
    245c:	80 91 fc 01 	lds	r24, 0x01FC	; 0x8001fc <irmp_flags>
    2460:	81 60       	ori	r24, 0x01	; 1
    2462:	80 93 fc 01 	sts	0x01FC, r24	; 0x8001fc <irmp_flags>
                                    key_repetition_len = 0;
    2466:	10 92 e8 01 	sts	0x01E8, r1	; 0x8001e8 <key_repetition_len.2357+0x1>
    246a:	10 92 e7 01 	sts	0x01E7, r1	; 0x8001e7 <key_repetition_len.2357>
    246e:	e5 c0       	rjmp	.+458    	; 0x263a <irmp_ISR+0x52c>
                                {
#ifdef ANALYZE
                                    ANALYZE_PRINTF ("ignoring NEC repetition frame: timeout occured, key_repetition_len = %d > %d\n",
                                                    key_repetition_len, NEC_FRAME_REPEAT_PAUSE_LEN_MAX);
#endif // ANALYZE
                                    irmp_ir_detected = FALSE;
    2470:	10 92 04 02 	sts	0x0204, r1	; 0x800204 <irmp_ir_detected>
    2474:	e2 c0       	rjmp	.+452    	; 0x263a <irmp_ISR+0x52c>
                            {
#ifdef ANALYZE
                                ANALYZE_PRINTF ("error 2: pause %d after data bit %d too long\n", irmp_pause_time, irmp_bit);
                                ANALYZE_ONLY_NORMAL_PUTCHAR ('\n');
#endif // ANALYZE
                                irmp_start_bit_detected = 0;                    // wait for another start bit...
    2476:	10 92 ee 01 	sts	0x01EE, r1	; 0x8001ee <irmp_start_bit_detected.2350>
                                irmp_pulse_time         = 0;
    247a:	10 92 ed 01 	sts	0x01ED, r1	; 0x8001ed <irmp_pulse_time.2353>
                                irmp_pause_time         = 0;
    247e:	10 92 ea 01 	sts	0x01EA, r1	; 0x8001ea <irmp_pause_time.2354>
    2482:	e2 c1       	rjmp	.+964    	; 0x2848 <irmp_ISR+0x73a>

#if IRMP_SUPPORT_MANCHESTER == 1
                    if ((irmp_param.flags & IRMP_PARAM_FLAG_IS_MANCHESTER))                                     // Manchester
                    {
#if 1
                        if (irmp_pulse_time > irmp_param.pulse_1_len_max /* && irmp_pulse_time <= 2 * irmp_param.pulse_1_len_max */)
    2484:	90 91 ed 01 	lds	r25, 0x01ED	; 0x8001ed <irmp_pulse_time.2353>
    2488:	20 91 07 02 	lds	r18, 0x0207	; 0x800207 <irmp_param+0x2>
    248c:	29 17       	cp	r18, r25
    248e:	98 f4       	brcc	.+38     	; 0x24b6 <irmp_ISR+0x3a8>
#endif // IRMP_SUPPORT_RC6_PROTOCOL == 1
                            {
#ifdef ANALYZE
                                ANALYZE_PUTCHAR ((irmp_param.flags & IRMP_PARAM_FLAG_1ST_PULSE_IS_1) ? '0' : '1');
#endif // ANALYZE
                                irmp_store_bit ((irmp_param.flags & IRMP_PARAM_FLAG_1ST_PULSE_IS_1) ? 0  :  1 );
    2490:	86 95       	lsr	r24
    2492:	81 70       	andi	r24, 0x01	; 1
    2494:	91 e0       	ldi	r25, 0x01	; 1
    2496:	89 27       	eor	r24, r25
    2498:	0e 94 ef 0e 	call	0x1dde	; 0x1dde <irmp_store_bit>
#endif // IRMP_SUPPORT_RC6_PROTOCOL == 1
                                {
#ifdef ANALYZE
                                    ANALYZE_PUTCHAR ((irmp_param.flags & IRMP_PARAM_FLAG_1ST_PULSE_IS_1) ? '1' : '0');
#endif // ANALYZE
                                    irmp_store_bit ((irmp_param.flags & IRMP_PARAM_FLAG_1ST_PULSE_IS_1) ? 1 :   0 );
    249c:	c5 e0       	ldi	r28, 0x05	; 5
    249e:	d2 e0       	ldi	r29, 0x02	; 2
    24a0:	88 89       	ldd	r24, Y+16	; 0x10
    24a2:	86 95       	lsr	r24
    24a4:	81 70       	andi	r24, 0x01	; 1
    24a6:	0e 94 ef 0e 	call	0x1dde	; 0x1dde <irmp_store_bit>
                                    {
#ifdef ANALYZE
                                        ANALYZE_NEWLINE ();
#endif // ANALYZE
                                    }
                                    last_value = (irmp_param.flags & IRMP_PARAM_FLAG_1ST_PULSE_IS_1) ? 1 : 0;
    24aa:	88 89       	ldd	r24, Y+16	; 0x10
    24ac:	86 95       	lsr	r24
    24ae:	81 70       	andi	r24, 0x01	; 1
    24b0:	80 93 e5 01 	sts	0x01E5, r24	; 0x8001e5 <last_value.2361>
    24b4:	22 c0       	rjmp	.+68     	; 0x24fa <irmp_ISR+0x3ec>
                                }
                            }
                        }
                        else if (irmp_pulse_time >= irmp_param.pulse_1_len_min && irmp_pulse_time <= irmp_param.pulse_1_len_max
    24b6:	80 91 06 02 	lds	r24, 0x0206	; 0x800206 <irmp_param+0x1>
    24ba:	98 17       	cp	r25, r24
    24bc:	d0 f0       	brcs	.+52     	; 0x24f2 <irmp_ISR+0x3e4>
                                 /* && irmp_pause_time <= 2 * irmp_param.pause_1_len_max */)
                        {
                            uint_fast8_t manchester_value;

                            if (last_pause > irmp_param.pause_1_len_max && last_pause <= 2 * irmp_param.pause_1_len_max)
    24be:	80 91 09 02 	lds	r24, 0x0209	; 0x800209 <irmp_param+0x4>
    24c2:	20 91 e6 01 	lds	r18, 0x01E6	; 0x8001e6 <last_pause.2360>
    24c6:	82 17       	cp	r24, r18
    24c8:	78 f4       	brcc	.+30     	; 0x24e8 <irmp_ISR+0x3da>
    24ca:	30 e0       	ldi	r19, 0x00	; 0
    24cc:	90 e0       	ldi	r25, 0x00	; 0
    24ce:	88 0f       	add	r24, r24
    24d0:	99 1f       	adc	r25, r25
    24d2:	82 17       	cp	r24, r18
    24d4:	93 07       	cpc	r25, r19
    24d6:	44 f0       	brlt	.+16     	; 0x24e8 <irmp_ISR+0x3da>
                            {
                                manchester_value = last_value ? 0 : 1;
    24d8:	81 e0       	ldi	r24, 0x01	; 1
    24da:	90 91 e5 01 	lds	r25, 0x01E5	; 0x8001e5 <last_value.2361>
    24de:	91 11       	cpse	r25, r1
    24e0:	80 e0       	ldi	r24, 0x00	; 0
                                last_value  = manchester_value;
    24e2:	80 93 e5 01 	sts	0x01E5, r24	; 0x8001e5 <last_value.2361>
    24e6:	02 c0       	rjmp	.+4      	; 0x24ec <irmp_ISR+0x3de>
                            }
                            else
                            {
                                manchester_value = last_value;
    24e8:	80 91 e5 01 	lds	r24, 0x01E5	; 0x8001e5 <last_value.2361>
                                irmp_param.command_end = irmp_param.command_offset + 16 - 1;
                                irmp_tmp_address = 0;
                            }
#endif // IRMP_SUPPORT_RC6_PROTOCOL == 1

                            irmp_store_bit (manchester_value);
    24ec:	0e 94 ef 0e 	call	0x1dde	; 0x1dde <irmp_store_bit>
                                }
                            }
                        }
                        else if (irmp_pulse_time >= irmp_param.pulse_1_len_min && irmp_pulse_time <= irmp_param.pulse_1_len_max
                                 /* && irmp_pause_time <= 2 * irmp_param.pause_1_len_max */)
                        {
    24f0:	04 c0       	rjmp	.+8      	; 0x24fa <irmp_ISR+0x3ec>
                                ANALYZE_PUTCHAR ('?');
                                ANALYZE_NEWLINE ();
                                ANALYZE_PRINTF ("error 3 manchester: timing not correct: data bit %d,  pulse: %d, pause: %d\n", irmp_bit, irmp_pulse_time, irmp_pause_time);
                                ANALYZE_ONLY_NORMAL_PUTCHAR ('\n');
#endif // ANALYZE
                                irmp_start_bit_detected = 0;                            // reset flags and wait for next start bit
    24f2:	10 92 ee 01 	sts	0x01EE, r1	; 0x8001ee <irmp_start_bit_detected.2350>
                                irmp_pause_time         = 0;
    24f6:	10 92 ea 01 	sts	0x01EA, r1	; 0x8001ea <irmp_pause_time.2354>
                                irmp_tmp_command = irmp_tmp_command2;
                            }
                        }
#endif // IRMP_SUPPORT_RCCAR_PROTOCOL == 1

                        last_pause      = irmp_pause_time;
    24fa:	80 91 ea 01 	lds	r24, 0x01EA	; 0x8001ea <irmp_pause_time.2354>
    24fe:	80 93 e6 01 	sts	0x01E6, r24	; 0x8001e6 <last_pause.2360>
                        wait_for_space  = 0;
    2502:	10 92 eb 01 	sts	0x01EB, r1	; 0x8001eb <wait_for_space.2351>
    2506:	6c c0       	rjmp	.+216    	; 0x25e0 <irmp_ISR+0x4d2>
                    }
                    else
#endif // IRMP_SUPPORT_SERIAL == 1

#if IRMP_SUPPORT_SAMSUNG_PROTOCOL == 1
                    if (irmp_param.protocol == IRMP_SAMSUNG_PROTOCOL && irmp_bit == 16)       // Samsung: 16th bit
    2508:	80 91 05 02 	lds	r24, 0x0205	; 0x800205 <irmp_param>
    250c:	83 30       	cpi	r24, 0x03	; 3
    250e:	91 f5       	brne	.+100    	; 0x2574 <irmp_ISR+0x466>
    2510:	80 91 16 02 	lds	r24, 0x0216	; 0x800216 <irmp_bit>
    2514:	80 31       	cpi	r24, 0x10	; 16
    2516:	71 f5       	brne	.+92     	; 0x2574 <irmp_ISR+0x466>
                    {
                        if (irmp_pulse_time >= SAMSUNG_PULSE_LEN_MIN && irmp_pulse_time <= SAMSUNG_PULSE_LEN_MAX &&
    2518:	80 91 ed 01 	lds	r24, 0x01ED	; 0x8001ed <irmp_pulse_time.2353>
    251c:	85 50       	subi	r24, 0x05	; 5
    251e:	88 30       	cpi	r24, 0x08	; 8
    2520:	20 f5       	brcc	.+72     	; 0x256a <irmp_ISR+0x45c>
                            irmp_pause_time >= SAMSUNG_START_BIT_PAUSE_LEN_MIN && irmp_pause_time <= SAMSUNG_START_BIT_PAUSE_LEN_MAX)
    2522:	80 91 ea 01 	lds	r24, 0x01EA	; 0x8001ea <irmp_pause_time.2354>
#endif // IRMP_SUPPORT_SERIAL == 1

#if IRMP_SUPPORT_SAMSUNG_PROTOCOL == 1
                    if (irmp_param.protocol == IRMP_SAMSUNG_PROTOCOL && irmp_bit == 16)       // Samsung: 16th bit
                    {
                        if (irmp_pulse_time >= SAMSUNG_PULSE_LEN_MIN && irmp_pulse_time <= SAMSUNG_PULSE_LEN_MAX &&
    2526:	94 ec       	ldi	r25, 0xC4	; 196
    2528:	98 0f       	add	r25, r24
    252a:	90 31       	cpi	r25, 0x10	; 16
    252c:	30 f4       	brcc	.+12     	; 0x253a <irmp_ISR+0x42c>
                            irmp_pause_time >= SAMSUNG_START_BIT_PAUSE_LEN_MIN && irmp_pause_time <= SAMSUNG_START_BIT_PAUSE_LEN_MAX)
                        {
#ifdef ANALYZE
                            ANALYZE_PRINTF ("SYNC\n");
#endif // ANALYZE
                            wait_for_space = 0;
    252e:	10 92 eb 01 	sts	0x01EB, r1	; 0x8001eb <wait_for_space.2351>
                            irmp_bit++;
    2532:	81 e1       	ldi	r24, 0x11	; 17
    2534:	80 93 16 02 	sts	0x0216, r24	; 0x800216 <irmp_bit>
    2538:	53 c0       	rjmp	.+166    	; 0x25e0 <irmp_ISR+0x4d2>
                            irmp_param.complete_len     = SAMSUNG48_COMPLETE_DATA_LEN;
#else
#ifdef ANALYZE
                            ANALYZE_PRINTF ("Switching to SAMSUNG32 protocol ");
#endif // ANALYZE
                            irmp_param.protocol         = IRMP_SAMSUNG32_PROTOCOL;
    253a:	e5 e0       	ldi	r30, 0x05	; 5
    253c:	f2 e0       	ldi	r31, 0x02	; 2
    253e:	9a e0       	ldi	r25, 0x0A	; 10
    2540:	90 83       	st	Z, r25
                            irmp_param.command_offset   = SAMSUNG32_COMMAND_OFFSET;
    2542:	90 e1       	ldi	r25, 0x10	; 16
    2544:	93 87       	std	Z+11, r25	; 0x0b
                            irmp_param.command_end      = SAMSUNG32_COMMAND_OFFSET + SAMSUNG32_COMMAND_LEN;
    2546:	90 e2       	ldi	r25, 0x20	; 32
    2548:	94 87       	std	Z+12, r25	; 0x0c
                            irmp_param.complete_len     = SAMSUNG32_COMPLETE_DATA_LEN;
    254a:	95 87       	std	Z+13, r25	; 0x0d
#endif
                            if (irmp_pause_time >= SAMSUNG_1_PAUSE_LEN_MIN && irmp_pause_time <= SAMSUNG_1_PAUSE_LEN_MAX)
    254c:	8f 50       	subi	r24, 0x0F	; 15
    254e:	80 31       	cpi	r24, 0x10	; 16
    2550:	30 f4       	brcc	.+12     	; 0x255e <irmp_ISR+0x450>
                            {
#ifdef ANALYZE
                                ANALYZE_PUTCHAR ('1');
                                ANALYZE_NEWLINE ();
#endif // ANALYZE
                                irmp_store_bit (1);
    2552:	81 e0       	ldi	r24, 0x01	; 1
    2554:	0e 94 ef 0e 	call	0x1dde	; 0x1dde <irmp_store_bit>
                                wait_for_space = 0;
    2558:	10 92 eb 01 	sts	0x01EB, r1	; 0x8001eb <wait_for_space.2351>
    255c:	41 c0       	rjmp	.+130    	; 0x25e0 <irmp_ISR+0x4d2>
                            {
#ifdef ANALYZE
                                ANALYZE_PUTCHAR ('0');
                                ANALYZE_NEWLINE ();
#endif // ANALYZE
                                irmp_store_bit (0);
    255e:	80 e0       	ldi	r24, 0x00	; 0
    2560:	0e 94 ef 0e 	call	0x1dde	; 0x1dde <irmp_store_bit>
                                wait_for_space = 0;
    2564:	10 92 eb 01 	sts	0x01EB, r1	; 0x8001eb <wait_for_space.2351>
    2568:	3b c0       	rjmp	.+118    	; 0x25e0 <irmp_ISR+0x4d2>
                        {                                                           // timing incorrect!
#ifdef ANALYZE
                            ANALYZE_PRINTF ("error 3 Samsung: timing not correct: data bit %d,  pulse: %d, pause: %d\n", irmp_bit, irmp_pulse_time, irmp_pause_time);
                            ANALYZE_ONLY_NORMAL_PUTCHAR ('\n');
#endif // ANALYZE
                            irmp_start_bit_detected = 0;                            // reset flags and wait for next start bit
    256a:	10 92 ee 01 	sts	0x01EE, r1	; 0x8001ee <irmp_start_bit_detected.2350>
                            irmp_pause_time         = 0;
    256e:	10 92 ea 01 	sts	0x01EA, r1	; 0x8001ea <irmp_pause_time.2354>
    2572:	36 c0       	rjmp	.+108    	; 0x25e0 <irmp_ISR+0x4d2>
                        wait_for_space = 0;
                    }
                    else
#endif

                    if (irmp_pulse_time >= irmp_param.pulse_1_len_min && irmp_pulse_time <= irmp_param.pulse_1_len_max &&
    2574:	80 91 ed 01 	lds	r24, 0x01ED	; 0x8001ed <irmp_pulse_time.2353>
    2578:	90 91 06 02 	lds	r25, 0x0206	; 0x800206 <irmp_param+0x1>
    257c:	89 17       	cp	r24, r25
    257e:	a0 f0       	brcs	.+40     	; 0x25a8 <irmp_ISR+0x49a>
    2580:	90 91 07 02 	lds	r25, 0x0207	; 0x800207 <irmp_param+0x2>
    2584:	98 17       	cp	r25, r24
    2586:	80 f0       	brcs	.+32     	; 0x25a8 <irmp_ISR+0x49a>
                        irmp_pause_time >= irmp_param.pause_1_len_min && irmp_pause_time <= irmp_param.pause_1_len_max)
    2588:	90 91 ea 01 	lds	r25, 0x01EA	; 0x8001ea <irmp_pause_time.2354>
                        wait_for_space = 0;
                    }
                    else
#endif

                    if (irmp_pulse_time >= irmp_param.pulse_1_len_min && irmp_pulse_time <= irmp_param.pulse_1_len_max &&
    258c:	20 91 08 02 	lds	r18, 0x0208	; 0x800208 <irmp_param+0x3>
    2590:	92 17       	cp	r25, r18
    2592:	50 f0       	brcs	.+20     	; 0x25a8 <irmp_ISR+0x49a>
                        irmp_pause_time >= irmp_param.pause_1_len_min && irmp_pause_time <= irmp_param.pause_1_len_max)
    2594:	20 91 09 02 	lds	r18, 0x0209	; 0x800209 <irmp_param+0x4>
    2598:	29 17       	cp	r18, r25
    259a:	30 f0       	brcs	.+12     	; 0x25a8 <irmp_ISR+0x49a>
                    {                                                               // pulse & pause timings correct for "1"?
#ifdef ANALYZE
                        ANALYZE_PUTCHAR ('1');
                        ANALYZE_NEWLINE ();
#endif // ANALYZE
                        irmp_store_bit (1);
    259c:	81 e0       	ldi	r24, 0x01	; 1
    259e:	0e 94 ef 0e 	call	0x1dde	; 0x1dde <irmp_store_bit>
                        wait_for_space = 0;
    25a2:	10 92 eb 01 	sts	0x01EB, r1	; 0x8001eb <wait_for_space.2351>
    25a6:	1c c0       	rjmp	.+56     	; 0x25e0 <irmp_ISR+0x4d2>
                    }
                    else if (irmp_pulse_time >= irmp_param.pulse_0_len_min && irmp_pulse_time <= irmp_param.pulse_0_len_max &&
    25a8:	90 91 0a 02 	lds	r25, 0x020A	; 0x80020a <irmp_param+0x5>
    25ac:	89 17       	cp	r24, r25
    25ae:	a0 f0       	brcs	.+40     	; 0x25d8 <irmp_ISR+0x4ca>
    25b0:	90 91 0b 02 	lds	r25, 0x020B	; 0x80020b <irmp_param+0x6>
    25b4:	98 17       	cp	r25, r24
    25b6:	80 f0       	brcs	.+32     	; 0x25d8 <irmp_ISR+0x4ca>
                             irmp_pause_time >= irmp_param.pause_0_len_min && irmp_pause_time <= irmp_param.pause_0_len_max)
    25b8:	80 91 ea 01 	lds	r24, 0x01EA	; 0x8001ea <irmp_pause_time.2354>
                        ANALYZE_NEWLINE ();
#endif // ANALYZE
                        irmp_store_bit (1);
                        wait_for_space = 0;
                    }
                    else if (irmp_pulse_time >= irmp_param.pulse_0_len_min && irmp_pulse_time <= irmp_param.pulse_0_len_max &&
    25bc:	90 91 0c 02 	lds	r25, 0x020C	; 0x80020c <irmp_param+0x7>
    25c0:	89 17       	cp	r24, r25
    25c2:	50 f0       	brcs	.+20     	; 0x25d8 <irmp_ISR+0x4ca>
                             irmp_pause_time >= irmp_param.pause_0_len_min && irmp_pause_time <= irmp_param.pause_0_len_max)
    25c4:	90 91 0d 02 	lds	r25, 0x020D	; 0x80020d <irmp_param+0x8>
    25c8:	98 17       	cp	r25, r24
    25ca:	30 f0       	brcs	.+12     	; 0x25d8 <irmp_ISR+0x4ca>
                    {                                                               // pulse & pause timings correct for "0"?
#ifdef ANALYZE
                        ANALYZE_PUTCHAR ('0');
                        ANALYZE_NEWLINE ();
#endif // ANALYZE
                        irmp_store_bit (0);
    25cc:	80 e0       	ldi	r24, 0x00	; 0
    25ce:	0e 94 ef 0e 	call	0x1dde	; 0x1dde <irmp_store_bit>
                        wait_for_space = 0;
    25d2:	10 92 eb 01 	sts	0x01EB, r1	; 0x8001eb <wait_for_space.2351>
    25d6:	04 c0       	rjmp	.+8      	; 0x25e0 <irmp_ISR+0x4d2>
                    {                                                               // timing incorrect!
#ifdef ANALYZE
                        ANALYZE_PRINTF ("error 3: timing not correct: data bit %d,  pulse: %d, pause: %d\n", irmp_bit, irmp_pulse_time, irmp_pause_time);
                        ANALYZE_ONLY_NORMAL_PUTCHAR ('\n');
#endif // ANALYZE
                        irmp_start_bit_detected = 0;                                // reset flags and wait for next start bit
    25d8:	10 92 ee 01 	sts	0x01EE, r1	; 0x8001ee <irmp_start_bit_detected.2350>
                        irmp_pause_time         = 0;
    25dc:	10 92 ea 01 	sts	0x01EA, r1	; 0x8001ea <irmp_pause_time.2354>
                    }

                    irmp_pulse_time = 1;                                            // set counter to 1, not 0
    25e0:	81 e0       	ldi	r24, 0x01	; 1
    25e2:	80 93 ed 01 	sts	0x01ED, r24	; 0x8001ed <irmp_pulse_time.2353>
    25e6:	24 c0       	rjmp	.+72     	; 0x2630 <irmp_ISR+0x522>
                }
            }
            else
            {                                                                       // counting the pulse length ...
                if (! irmp_input)                                                   // still light?
    25e8:	81 11       	cpse	r24, r1
    25ea:	06 c0       	rjmp	.+12     	; 0x25f8 <irmp_ISR+0x4ea>
                {                                                                   // yes...
                    irmp_pulse_time++;                                              // increment counter
    25ec:	80 91 ed 01 	lds	r24, 0x01ED	; 0x8001ed <irmp_pulse_time.2353>
    25f0:	8f 5f       	subi	r24, 0xFF	; 255
    25f2:	80 93 ed 01 	sts	0x01ED, r24	; 0x8001ed <irmp_pulse_time.2353>
    25f6:	21 c0       	rjmp	.+66     	; 0x263a <irmp_ISR+0x52c>
                }
                else
                {                                                                   // now it's dark!
                    wait_for_space  = 1;                                            // let's count the time (see above)
    25f8:	81 e0       	ldi	r24, 0x01	; 1
    25fa:	80 93 eb 01 	sts	0x01EB, r24	; 0x8001eb <wait_for_space.2351>
                    irmp_pause_time = 1;                                            // set pause counter to 1, not 0
    25fe:	80 93 ea 01 	sts	0x01EA, r24	; 0x8001ea <irmp_pause_time.2354>

#if IRMP_SUPPORT_RCII_PROTOCOL == 1
                    if (irmp_param.protocol == IRMP_RCII_PROTOCOL && waiting_for_2nd_pulse)
    2602:	80 91 05 02 	lds	r24, 0x0205	; 0x800205 <irmp_param>
    2606:	86 33       	cpi	r24, 0x36	; 54
    2608:	c1 f4       	brne	.+48     	; 0x263a <irmp_ISR+0x52c>
    260a:	80 91 e4 01 	lds	r24, 0x01E4	; 0x8001e4 <waiting_for_2nd_pulse.2362>
    260e:	88 23       	and	r24, r24
    2610:	a1 f0       	breq	.+40     	; 0x263a <irmp_ISR+0x52c>
                    {
                        if (irmp_pulse_time >= RCII_BIT_LEN)
    2612:	80 91 ed 01 	lds	r24, 0x01ED	; 0x8001ed <irmp_pulse_time.2353>
    2616:	87 30       	cpi	r24, 0x07	; 7
    2618:	30 f0       	brcs	.+12     	; 0x2626 <irmp_ISR+0x518>
                        {
                            irmp_pulse_time -= RCII_BIT_LEN;
    261a:	87 50       	subi	r24, 0x07	; 7
    261c:	80 93 ed 01 	sts	0x01ED, r24	; 0x8001ed <irmp_pulse_time.2353>
                            last_value = 0;
    2620:	10 92 e5 01 	sts	0x01E5, r1	; 0x8001e5 <last_value.2361>
    2624:	03 c0       	rjmp	.+6      	; 0x262c <irmp_ISR+0x51e>
                        }
                        else
                        {
                            last_value = 1;
    2626:	81 e0       	ldi	r24, 0x01	; 1
    2628:	80 93 e5 01 	sts	0x01E5, r24	; 0x8001e5 <last_value.2361>
                        }
#ifdef ANALYZE
                        ANALYZE_PRINTF ("RCII: got 2nd pulse, irmp_pulse_time = %d\n", irmp_pulse_time);
#endif
                        waiting_for_2nd_pulse = 0;
    262c:	10 92 e4 01 	sts	0x01E4, r1	; 0x8001e4 <waiting_for_2nd_pulse.2362>
                    }
#endif
                }
            }

            if (irmp_start_bit_detected && irmp_bit == irmp_param.complete_len && irmp_param.stop_bit == 0)    // enough bits received?
    2630:	80 91 ee 01 	lds	r24, 0x01EE	; 0x8001ee <irmp_start_bit_detected.2350>
    2634:	88 23       	and	r24, r24
    2636:	09 f4       	brne	.+2      	; 0x263a <irmp_ISR+0x52c>
    2638:	07 c1       	rjmp	.+526    	; 0x2848 <irmp_ISR+0x73a>
    263a:	80 91 12 02 	lds	r24, 0x0212	; 0x800212 <irmp_param+0xd>
    263e:	90 91 16 02 	lds	r25, 0x0216	; 0x800216 <irmp_bit>
    2642:	89 13       	cpse	r24, r25
    2644:	01 c1       	rjmp	.+514    	; 0x2848 <irmp_ISR+0x73a>
    2646:	90 91 13 02 	lds	r25, 0x0213	; 0x800213 <irmp_param+0xe>
    264a:	91 11       	cpse	r25, r1
    264c:	fd c0       	rjmp	.+506    	; 0x2848 <irmp_ISR+0x73a>
            {
                if (last_irmp_command == irmp_tmp_command && key_repetition_len < AUTO_FRAME_REPETITION_LEN)
    264e:	20 91 06 01 	lds	r18, 0x0106	; 0x800106 <last_irmp_command.2356>
    2652:	30 91 07 01 	lds	r19, 0x0107	; 0x800107 <last_irmp_command.2356+0x1>
    2656:	40 91 f8 01 	lds	r20, 0x01F8	; 0x8001f8 <irmp_tmp_command>
    265a:	50 91 f9 01 	lds	r21, 0x01F9	; 0x8001f9 <irmp_tmp_command+0x1>
    265e:	24 17       	cp	r18, r20
    2660:	35 07       	cpc	r19, r21
    2662:	89 f4       	brne	.+34     	; 0x2686 <irmp_ISR+0x578>
    2664:	40 91 e7 01 	lds	r20, 0x01E7	; 0x8001e7 <key_repetition_len.2357>
    2668:	50 91 e8 01 	lds	r21, 0x01E8	; 0x8001e8 <key_repetition_len.2357+0x1>
    266c:	40 3b       	cpi	r20, 0xB0	; 176
    266e:	54 40       	sbci	r21, 0x04	; 4
    2670:	50 f4       	brcc	.+20     	; 0x2686 <irmp_ISR+0x578>
                {
                    repetition_frame_number++;
    2672:	90 91 e3 01 	lds	r25, 0x01E3	; 0x8001e3 <repetition_frame_number.2358>
    2676:	9f 5f       	subi	r25, 0xFF	; 255
    2678:	90 93 e3 01 	sts	0x01E3, r25	; 0x8001e3 <repetition_frame_number.2358>
                    repetition_frame_number = 0;
                }

#if IRMP_SUPPORT_SIRCS_PROTOCOL == 1
                // if SIRCS protocol and the code will be repeated within 50 ms, we will ignore 2nd and 3rd repetition frame
                if (irmp_param.protocol == IRMP_SIRCS_PROTOCOL && (repetition_frame_number == 1 || repetition_frame_number == 2))
    267c:	90 91 05 02 	lds	r25, 0x0205	; 0x800205 <irmp_param>
    2680:	91 30       	cpi	r25, 0x01	; 1
    2682:	41 f0       	breq	.+16     	; 0x2694 <irmp_ISR+0x586>
    2684:	12 c0       	rjmp	.+36     	; 0x26aa <irmp_ISR+0x59c>
                {
                    repetition_frame_number++;
                }
                else
                {
                    repetition_frame_number = 0;
    2686:	10 92 e3 01 	sts	0x01E3, r1	; 0x8001e3 <repetition_frame_number.2358>
                }

#if IRMP_SUPPORT_SIRCS_PROTOCOL == 1
                // if SIRCS protocol and the code will be repeated within 50 ms, we will ignore 2nd and 3rd repetition frame
                if (irmp_param.protocol == IRMP_SIRCS_PROTOCOL && (repetition_frame_number == 1 || repetition_frame_number == 2))
    268a:	90 91 05 02 	lds	r25, 0x0205	; 0x800205 <irmp_param>
    268e:	91 30       	cpi	r25, 0x01	; 1
    2690:	61 f4       	brne	.+24     	; 0x26aa <irmp_ISR+0x59c>
    2692:	f7 c0       	rjmp	.+494    	; 0x2882 <irmp_ISR+0x774>
    2694:	80 91 e3 01 	lds	r24, 0x01E3	; 0x8001e3 <repetition_frame_number.2358>
    2698:	81 50       	subi	r24, 0x01	; 1
    269a:	82 30       	cpi	r24, 0x02	; 2
    269c:	08 f0       	brcs	.+2      	; 0x26a0 <irmp_ISR+0x592>
    269e:	f1 c0       	rjmp	.+482    	; 0x2882 <irmp_ISR+0x774>
                {
#ifdef ANALYZE
                    ANALYZE_PRINTF ("code skipped: SIRCS auto repetition frame #%d, counter = %d, auto repetition len = %d\n",
                                    repetition_frame_number + 1, key_repetition_len, AUTO_FRAME_REPETITION_LEN);
#endif // ANALYZE
                    key_repetition_len = 0;
    26a0:	10 92 e8 01 	sts	0x01E8, r1	; 0x8001e8 <key_repetition_len.2357+0x1>
    26a4:	10 92 e7 01 	sts	0x01E7, r1	; 0x8001e7 <key_repetition_len.2357>
    26a8:	8f c0       	rjmp	.+286    	; 0x27c8 <irmp_ISR+0x6ba>

                {
#ifdef ANALYZE
                    ANALYZE_PRINTF ("%8.3fms code detected, length = %d\n", (double) (time_counter * 1000) / F_INTERRUPTS, irmp_bit);
#endif // ANALYZE
                    irmp_ir_detected = TRUE;
    26aa:	41 e0       	ldi	r20, 0x01	; 1
    26ac:	40 93 04 02 	sts	0x0204, r20	; 0x800204 <irmp_ir_detected>
                    }
                    else
#endif // IRMP_SUPPORT_NOKIA_PROTOCOL
                    {
#if IRMP_SUPPORT_NEC_PROTOCOL == 1
                        if (irmp_param.protocol == IRMP_NEC_PROTOCOL && irmp_bit == 0)  // repetition frame
    26b0:	92 30       	cpi	r25, 0x02	; 2
    26b2:	11 f5       	brne	.+68     	; 0x26f8 <irmp_ISR+0x5ea>
    26b4:	81 11       	cpse	r24, r1
    26b6:	e9 c0       	rjmp	.+466    	; 0x288a <irmp_ISR+0x77c>
                        {
                            if (key_repetition_len < NEC_FRAME_REPEAT_PAUSE_LEN_MAX)
    26b8:	40 91 e7 01 	lds	r20, 0x01E7	; 0x8001e7 <key_repetition_len.2357>
    26bc:	50 91 e8 01 	lds	r21, 0x01E8	; 0x8001e8 <key_repetition_len.2357+0x1>
    26c0:	48 30       	cpi	r20, 0x08	; 8
    26c2:	57 40       	sbci	r21, 0x07	; 7
    26c4:	b0 f4       	brcc	.+44     	; 0x26f2 <irmp_ISR+0x5e4>
                            {
#ifdef ANALYZE
                                ANALYZE_PRINTF ("Detected NEC repetition frame, key_repetition_len = %d\n", key_repetition_len);
                                ANALYZE_ONLY_NORMAL_PRINTF("REPETETION FRAME                ");
#endif // ANALYZE
                                irmp_tmp_address = last_irmp_address;                   // address is last address
    26c6:	40 91 08 01 	lds	r20, 0x0108	; 0x800108 <last_irmp_address.2355>
    26ca:	50 91 09 01 	lds	r21, 0x0109	; 0x800109 <last_irmp_address.2355+0x1>
    26ce:	50 93 fb 01 	sts	0x01FB, r21	; 0x8001fb <irmp_tmp_address+0x1>
    26d2:	40 93 fa 01 	sts	0x01FA, r20	; 0x8001fa <irmp_tmp_address>
                                irmp_tmp_command = last_irmp_command;                   // command is last command
    26d6:	30 93 f9 01 	sts	0x01F9, r19	; 0x8001f9 <irmp_tmp_command+0x1>
    26da:	20 93 f8 01 	sts	0x01F8, r18	; 0x8001f8 <irmp_tmp_command>
                                irmp_flags |= IRMP_FLAG_REPETITION;
    26de:	80 91 fc 01 	lds	r24, 0x01FC	; 0x8001fc <irmp_flags>
    26e2:	81 60       	ori	r24, 0x01	; 1
    26e4:	80 93 fc 01 	sts	0x01FC, r24	; 0x8001fc <irmp_flags>
                                key_repetition_len = 0;
    26e8:	10 92 e8 01 	sts	0x01E8, r1	; 0x8001e8 <key_repetition_len.2357+0x1>
    26ec:	10 92 e7 01 	sts	0x01E7, r1	; 0x8001e7 <key_repetition_len.2357>
    26f0:	cc c0       	rjmp	.+408    	; 0x288a <irmp_ISR+0x77c>
                            {
#ifdef ANALYZE
                                ANALYZE_PRINTF ("Detected NEC repetition frame, ignoring it: timeout occured, key_repetition_len = %d > %d\n",
                                                key_repetition_len, NEC_FRAME_REPEAT_PAUSE_LEN_MAX);
#endif // ANALYZE
                                irmp_ir_detected = FALSE;
    26f2:	10 92 04 02 	sts	0x0204, r1	; 0x800204 <irmp_ir_detected>
    26f6:	c9 c0       	rjmp	.+402    	; 0x288a <irmp_ISR+0x77c>
                            }
                        }
#endif // IRMP_SUPPORT_NEC_PROTOCOL

#if IRMP_SUPPORT_KASEIKYO_PROTOCOL == 1
                        if (irmp_param.protocol == IRMP_KASEIKYO_PROTOCOL)
    26f8:	95 30       	cpi	r25, 0x05	; 5
    26fa:	c1 f5       	brne	.+112    	; 0x276c <irmp_ISR+0x65e>
                        {
                            uint_fast8_t xor_value;

                            xor_value = (xor_check[0] & 0x0F) ^ ((xor_check[0] & 0xF0) >> 4) ^ (xor_check[1] & 0x0F) ^ ((xor_check[1] & 0xF0) >> 4);
    26fc:	e0 ef       	ldi	r30, 0xF0	; 240
    26fe:	f1 e0       	ldi	r31, 0x01	; 1
    2700:	80 81       	ld	r24, Z
    2702:	91 81       	ldd	r25, Z+1	; 0x01

                            if (xor_value != (xor_check[2] & 0x0F))
    2704:	42 81       	ldd	r20, Z+2	; 0x02
    2706:	28 2f       	mov	r18, r24
    2708:	2f 70       	andi	r18, 0x0F	; 15
    270a:	82 95       	swap	r24
    270c:	8f 70       	andi	r24, 0x0F	; 15
    270e:	82 27       	eor	r24, r18
    2710:	29 2f       	mov	r18, r25
    2712:	2f 70       	andi	r18, 0x0F	; 15
    2714:	82 27       	eor	r24, r18
    2716:	92 95       	swap	r25
    2718:	9f 70       	andi	r25, 0x0F	; 15
    271a:	98 27       	eor	r25, r24
    271c:	89 2f       	mov	r24, r25
    271e:	90 e0       	ldi	r25, 0x00	; 0
    2720:	24 2f       	mov	r18, r20
    2722:	2f 70       	andi	r18, 0x0F	; 15
    2724:	30 e0       	ldi	r19, 0x00	; 0
    2726:	82 17       	cp	r24, r18
    2728:	93 07       	cpc	r25, r19
    272a:	11 f0       	breq	.+4      	; 0x2730 <irmp_ISR+0x622>
                            {
#ifdef ANALYZE
                                ANALYZE_PRINTF ("error 4: wrong XOR check for customer id: 0x%1x 0x%1x\n", xor_value, xor_check[2] & 0x0F);
#endif // ANALYZE
                                irmp_ir_detected = FALSE;
    272c:	10 92 04 02 	sts	0x0204, r1	; 0x800204 <irmp_ir_detected>
                            }

                            xor_value = xor_check[2] ^ xor_check[3] ^ xor_check[4];
    2730:	e0 ef       	ldi	r30, 0xF0	; 240
    2732:	f1 e0       	ldi	r31, 0x01	; 1

                            if (xor_value != xor_check[5])
    2734:	83 81       	ldd	r24, Z+3	; 0x03
    2736:	94 2f       	mov	r25, r20
    2738:	98 27       	eor	r25, r24
    273a:	84 81       	ldd	r24, Z+4	; 0x04
    273c:	89 27       	eor	r24, r25
    273e:	95 81       	ldd	r25, Z+5	; 0x05
    2740:	89 13       	cpse	r24, r25
                            {
#ifdef ANALYZE
                                ANALYZE_PRINTF ("error 5: wrong XOR check for data bits: 0x%02x 0x%02x\n", xor_value, xor_check[5]);
#endif // ANALYZE
                                irmp_ir_detected = FALSE;
    2742:	10 92 04 02 	sts	0x0204, r1	; 0x800204 <irmp_ir_detected>
                            }

                            irmp_flags |= genre2;       // write the genre2 bits into MSB of the flag byte
    2746:	90 91 fc 01 	lds	r25, 0x01FC	; 0x8001fc <irmp_flags>
    274a:	80 91 ef 01 	lds	r24, 0x01EF	; 0x8001ef <genre2>
    274e:	89 2b       	or	r24, r25
    2750:	80 93 fc 01 	sts	0x01FC, r24	; 0x8001fc <irmp_flags>
                            irmp_protocol = IRMP_RC6A_PROTOCOL;
                        }
                        else
#endif // IRMP_SUPPORT_RC6_PROTOCOL == 1
                        {
                            irmp_protocol = irmp_param.protocol;
    2754:	85 e0       	ldi	r24, 0x05	; 5
    2756:	80 93 03 02 	sts	0x0203, r24	; 0x800203 <irmp_protocol>
                            irmp_tmp_command |= (irmp_tmp_address << 2) & 0x0F00;   // 000000CCCCAAAAAA -> 0000CCCC00000000
                            irmp_tmp_address &= 0x003F;
                        }
#endif

                        irmp_address = irmp_tmp_address;                            // store address
    275a:	80 91 fa 01 	lds	r24, 0x01FA	; 0x8001fa <irmp_tmp_address>
    275e:	90 91 fb 01 	lds	r25, 0x01FB	; 0x8001fb <irmp_tmp_address+0x1>
    2762:	90 93 02 02 	sts	0x0202, r25	; 0x800202 <irmp_address+0x1>
    2766:	80 93 01 02 	sts	0x0201, r24	; 0x800201 <irmp_address>
    276a:	1e c0       	rjmp	.+60     	; 0x27a8 <irmp_ISR+0x69a>
                            irmp_protocol = IRMP_RC6A_PROTOCOL;
                        }
                        else
#endif // IRMP_SUPPORT_RC6_PROTOCOL == 1
                        {
                            irmp_protocol = irmp_param.protocol;
    276c:	90 93 03 02 	sts	0x0203, r25	; 0x800203 <irmp_protocol>
                            irmp_tmp_command |= (irmp_tmp_address << 2) & 0x0F00;   // 000000CCCCAAAAAA -> 0000CCCC00000000
                            irmp_tmp_address &= 0x003F;
                        }
#endif

                        irmp_address = irmp_tmp_address;                            // store address
    2770:	20 91 fa 01 	lds	r18, 0x01FA	; 0x8001fa <irmp_tmp_address>
    2774:	30 91 fb 01 	lds	r19, 0x01FB	; 0x8001fb <irmp_tmp_address+0x1>
    2778:	30 93 02 02 	sts	0x0202, r19	; 0x800202 <irmp_address+0x1>
    277c:	20 93 01 02 	sts	0x0201, r18	; 0x800201 <irmp_address>
#if IRMP_SUPPORT_NEC_PROTOCOL == 1
                        if (irmp_param.protocol == IRMP_NEC_PROTOCOL)
    2780:	92 30       	cpi	r25, 0x02	; 2
    2782:	29 f4       	brne	.+10     	; 0x278e <irmp_ISR+0x680>
                        {
                            last_irmp_address = irmp_tmp_address;                   // store as last address, too
    2784:	30 93 09 01 	sts	0x0109, r19	; 0x800109 <last_irmp_address.2355+0x1>
    2788:	20 93 08 01 	sts	0x0108, r18	; 0x800108 <last_irmp_address.2355>
    278c:	0d c0       	rjmp	.+26     	; 0x27a8 <irmp_ISR+0x69a>
                        }
#endif

#if IRMP_SUPPORT_RC5_PROTOCOL == 1
                        if (irmp_param.protocol == IRMP_RC5_PROTOCOL)
    278e:	97 30       	cpi	r25, 0x07	; 7
    2790:	59 f4       	brne	.+22     	; 0x27a8 <irmp_ISR+0x69a>
                        {
                            irmp_tmp_command |= rc5_cmd_bit6;                       // store bit 6
    2792:	20 91 e9 01 	lds	r18, 0x01E9	; 0x8001e9 <rc5_cmd_bit6.2359>
    2796:	80 91 f8 01 	lds	r24, 0x01F8	; 0x8001f8 <irmp_tmp_command>
    279a:	90 91 f9 01 	lds	r25, 0x01F9	; 0x8001f9 <irmp_tmp_command+0x1>
    279e:	82 2b       	or	r24, r18
    27a0:	90 93 f9 01 	sts	0x01F9, r25	; 0x8001f9 <irmp_tmp_command+0x1>
    27a4:	80 93 f8 01 	sts	0x01F8, r24	; 0x8001f8 <irmp_tmp_command>
                        if (irmp_param.protocol == IRMP_S100_PROTOCOL)
                        {
                            irmp_tmp_command |= rc5_cmd_bit6;                       // store bit 6
                        }
#endif
                        irmp_command = irmp_tmp_command;                            // store command
    27a8:	80 91 f8 01 	lds	r24, 0x01F8	; 0x8001f8 <irmp_tmp_command>
    27ac:	90 91 f9 01 	lds	r25, 0x01F9	; 0x8001f9 <irmp_tmp_command+0x1>
    27b0:	90 93 00 02 	sts	0x0200, r25	; 0x800200 <irmp_command+0x1>
    27b4:	80 93 ff 01 	sts	0x01FF, r24	; 0x8001ff <irmp_command>

#if IRMP_SUPPORT_SAMSUNG_PROTOCOL == 1
                        irmp_id = irmp_tmp_id;
    27b8:	80 91 f6 01 	lds	r24, 0x01F6	; 0x8001f6 <irmp_tmp_id>
    27bc:	90 91 f7 01 	lds	r25, 0x01F7	; 0x8001f7 <irmp_tmp_id+0x1>
    27c0:	90 93 fe 01 	sts	0x01FE, r25	; 0x8001fe <irmp_id+0x1>
    27c4:	80 93 fd 01 	sts	0x01FD, r24	; 0x8001fd <irmp_id>
#endif
                    }
                }

                if (irmp_ir_detected)
    27c8:	80 91 04 02 	lds	r24, 0x0204	; 0x800204 <irmp_ir_detected>
    27cc:	88 23       	and	r24, r24
    27ce:	91 f1       	breq	.+100    	; 0x2834 <irmp_ISR+0x726>
                {
                    if (last_irmp_command == irmp_tmp_command &&
    27d0:	80 91 f8 01 	lds	r24, 0x01F8	; 0x8001f8 <irmp_tmp_command>
    27d4:	90 91 f9 01 	lds	r25, 0x01F9	; 0x8001f9 <irmp_tmp_command+0x1>
    27d8:	20 91 06 01 	lds	r18, 0x0106	; 0x800106 <last_irmp_command.2356>
    27dc:	30 91 07 01 	lds	r19, 0x0107	; 0x800107 <last_irmp_command.2356+0x1>
    27e0:	28 17       	cp	r18, r24
    27e2:	39 07       	cpc	r19, r25
    27e4:	b9 f4       	brne	.+46     	; 0x2814 <irmp_ISR+0x706>
    27e6:	40 91 08 01 	lds	r20, 0x0108	; 0x800108 <last_irmp_address.2355>
    27ea:	50 91 09 01 	lds	r21, 0x0109	; 0x800109 <last_irmp_address.2355+0x1>
    27ee:	20 91 fa 01 	lds	r18, 0x01FA	; 0x8001fa <irmp_tmp_address>
    27f2:	30 91 fb 01 	lds	r19, 0x01FB	; 0x8001fb <irmp_tmp_address+0x1>
    27f6:	42 17       	cp	r20, r18
    27f8:	53 07       	cpc	r21, r19
    27fa:	61 f4       	brne	.+24     	; 0x2814 <irmp_ISR+0x706>
                        last_irmp_address == irmp_tmp_address &&
    27fc:	20 91 e7 01 	lds	r18, 0x01E7	; 0x8001e7 <key_repetition_len.2357>
    2800:	30 91 e8 01 	lds	r19, 0x01E8	; 0x8001e8 <key_repetition_len.2357+0x1>
    2804:	2a 3c       	cpi	r18, 0xCA	; 202
    2806:	38 40       	sbci	r19, 0x08	; 8
    2808:	28 f4       	brcc	.+10     	; 0x2814 <irmp_ISR+0x706>
                        key_repetition_len < IRMP_KEY_REPETITION_LEN)
                    {
                        irmp_flags |= IRMP_FLAG_REPETITION;
    280a:	20 91 fc 01 	lds	r18, 0x01FC	; 0x8001fc <irmp_flags>
    280e:	21 60       	ori	r18, 0x01	; 1
    2810:	20 93 fc 01 	sts	0x01FC, r18	; 0x8001fc <irmp_flags>
                    }

                    last_irmp_address = irmp_tmp_address;                           // store as last address, too
    2814:	20 91 fa 01 	lds	r18, 0x01FA	; 0x8001fa <irmp_tmp_address>
    2818:	30 91 fb 01 	lds	r19, 0x01FB	; 0x8001fb <irmp_tmp_address+0x1>
    281c:	30 93 09 01 	sts	0x0109, r19	; 0x800109 <last_irmp_address.2355+0x1>
    2820:	20 93 08 01 	sts	0x0108, r18	; 0x800108 <last_irmp_address.2355>
                    last_irmp_command = irmp_tmp_command;                           // store as last command, too
    2824:	90 93 07 01 	sts	0x0107, r25	; 0x800107 <last_irmp_command.2356+0x1>
    2828:	80 93 06 01 	sts	0x0106, r24	; 0x800106 <last_irmp_command.2356>

                    key_repetition_len = 0;
    282c:	10 92 e8 01 	sts	0x01E8, r1	; 0x8001e8 <key_repetition_len.2357+0x1>
    2830:	10 92 e7 01 	sts	0x01E7, r1	; 0x8001e7 <key_repetition_len.2357>
#ifdef ANALYZE
                    ANALYZE_ONLY_NORMAL_PUTCHAR ('\n');
#endif // ANALYZE
                }

                irmp_start_bit_detected = 0;                                        // and wait for next start bit
    2834:	10 92 ee 01 	sts	0x01EE, r1	; 0x8001ee <irmp_start_bit_detected.2350>
                irmp_tmp_command        = 0;
    2838:	10 92 f9 01 	sts	0x01F9, r1	; 0x8001f9 <irmp_tmp_command+0x1>
    283c:	10 92 f8 01 	sts	0x01F8, r1	; 0x8001f8 <irmp_tmp_command>
                irmp_pulse_time         = 0;
    2840:	10 92 ed 01 	sts	0x01ED, r1	; 0x8001ed <irmp_pulse_time.2353>
                irmp_pause_time         = 0;
    2844:	10 92 ea 01 	sts	0x01EA, r1	; 0x8001ea <irmp_pause_time.2354>

        irmp_idle();
    }
#endif // IRMP_USE_IDLE_CALL

    return (irmp_ir_detected);
    2848:	80 91 04 02 	lds	r24, 0x0204	; 0x800204 <irmp_ir_detected>
    284c:	29 c0       	rjmp	.+82     	; 0x28a0 <irmp_ISR+0x792>
#ifdef ANALYZE
                        ANALYZE_PRINTF ("protocol = SIRCS, start bit timings: pulse: %3d - %3d, pause: %3d - %3d\n",
                                        SIRCS_START_BIT_PULSE_LEN_MIN, SIRCS_START_BIT_PULSE_LEN_MAX,
                                        SIRCS_START_BIT_PAUSE_LEN_MIN, SIRCS_START_BIT_PAUSE_LEN_MAX);
#endif // ANALYZE
                        irmp_param_p = (IRMP_PARAMETER *) &sircs_param;
    284e:	60 e9       	ldi	r22, 0x90	; 144
    2850:	77 e0       	ldi	r23, 0x07	; 7
    2852:	0b c0       	rjmp	.+22     	; 0x286a <irmp_ISR+0x75c>
#ifdef ANALYZE
                        ANALYZE_PRINTF ("protocol = NEC, start bit timings: pulse: %3d - %3d, pause: %3d - %3d\n",
                                        NEC_START_BIT_PULSE_LEN_MIN, NEC_START_BIT_PULSE_LEN_MAX,
                                        NEC_START_BIT_PAUSE_LEN_MIN, NEC_START_BIT_PAUSE_LEN_MAX);
#endif // ANALYZE
                        irmp_param_p = (IRMP_PARAMETER *) &nec_param;
    2854:	6f e7       	ldi	r22, 0x7F	; 127
    2856:	77 e0       	ldi	r23, 0x07	; 7
    2858:	08 c0       	rjmp	.+16     	; 0x286a <irmp_ISR+0x75c>
                            ANALYZE_PRINTF ("protocol = NEC (repetition frame), start bit timings: pulse: %3d - %3d, pause: %3d - %3d\n",
                                            NEC_START_BIT_PULSE_LEN_MIN, NEC_START_BIT_PULSE_LEN_MAX,
                                            NEC_REPEAT_START_BIT_PAUSE_LEN_MIN, NEC_REPEAT_START_BIT_PAUSE_LEN_MAX);
#endif // ANALYZE

                            irmp_param_p = (IRMP_PARAMETER *) &nec_rep_param;
    285a:	6e e6       	ldi	r22, 0x6E	; 110
    285c:	77 e0       	ldi	r23, 0x07	; 7
    285e:	05 c0       	rjmp	.+10     	; 0x286a <irmp_ISR+0x75c>
#ifdef ANALYZE
                        ANALYZE_PRINTF ("protocol = SAMSUNG, start bit timings: pulse: %3d - %3d, pause: %3d - %3d\n",
                                        SAMSUNG_START_BIT_PULSE_LEN_MIN, SAMSUNG_START_BIT_PULSE_LEN_MAX,
                                        SAMSUNG_START_BIT_PAUSE_LEN_MIN, SAMSUNG_START_BIT_PAUSE_LEN_MAX);
#endif // ANALYZE
                        irmp_param_p = (IRMP_PARAMETER *) &samsung_param;
    2860:	6d e5       	ldi	r22, 0x5D	; 93
    2862:	77 e0       	ldi	r23, 0x07	; 7
    2864:	02 c0       	rjmp	.+4      	; 0x286a <irmp_ISR+0x75c>
#ifdef ANALYZE
                        ANALYZE_PRINTF ("protocol = KASEIKYO, start bit timings: pulse: %3d - %3d, pause: %3d - %3d\n",
                                        KASEIKYO_START_BIT_PULSE_LEN_MIN, KASEIKYO_START_BIT_PULSE_LEN_MAX,
                                        KASEIKYO_START_BIT_PAUSE_LEN_MIN, KASEIKYO_START_BIT_PAUSE_LEN_MAX);
#endif // ANALYZE
                        irmp_param_p = (IRMP_PARAMETER *) &kaseikyo_param;
    2866:	6c e4       	ldi	r22, 0x4C	; 76
    2868:	77 e0       	ldi	r23, 0x07	; 7
                        irmp_start_bit_detected = 0;                            // wait for another start bit...
                    }

                    if (irmp_start_bit_detected)
                    {
                        memcpy_P (&irmp_param, irmp_param_p, sizeof (IRMP_PARAMETER));
    286a:	41 e1       	ldi	r20, 0x11	; 17
    286c:	50 e0       	ldi	r21, 0x00	; 0
    286e:	85 e0       	ldi	r24, 0x05	; 5
    2870:	92 e0       	ldi	r25, 0x02	; 2
    2872:	0e 94 09 19 	call	0x3212	; 0x3212 <memcpy_P>
    2876:	11 cd       	rjmp	.-1502   	; 0x229a <irmp_ISR+0x18c>
#ifdef ANALYZE
                    ANALYZE_PRINTF ("%8.3fms [bit %2d: pulse = %3d, pause = %3d] ", (double) (time_counter * 1000) / F_INTERRUPTS, irmp_bit, irmp_pulse_time, irmp_pause_time);
#endif // ANALYZE

#if IRMP_SUPPORT_MANCHESTER == 1
                    if ((irmp_param.flags & IRMP_PARAM_FLAG_IS_MANCHESTER))                                     // Manchester
    2878:	80 91 15 02 	lds	r24, 0x0215	; 0x800215 <irmp_param+0x10>
    287c:	80 ff       	sbrs	r24, 0
    287e:	44 ce       	rjmp	.-888    	; 0x2508 <irmp_ISR+0x3fa>
    2880:	01 ce       	rjmp	.-1022   	; 0x2484 <irmp_ISR+0x376>

                {
#ifdef ANALYZE
                    ANALYZE_PRINTF ("%8.3fms code detected, length = %d\n", (double) (time_counter * 1000) / F_INTERRUPTS, irmp_bit);
#endif // ANALYZE
                    irmp_ir_detected = TRUE;
    2882:	81 e0       	ldi	r24, 0x01	; 1
    2884:	80 93 04 02 	sts	0x0204, r24	; 0x800204 <irmp_ir_detected>
    2888:	71 cf       	rjmp	.-286    	; 0x276c <irmp_ISR+0x65e>
                            irmp_protocol = IRMP_RC6A_PROTOCOL;
                        }
                        else
#endif // IRMP_SUPPORT_RC6_PROTOCOL == 1
                        {
                            irmp_protocol = irmp_param.protocol;
    288a:	90 93 03 02 	sts	0x0203, r25	; 0x800203 <irmp_protocol>
                            irmp_tmp_command |= (irmp_tmp_address << 2) & 0x0F00;   // 000000CCCCAAAAAA -> 0000CCCC00000000
                            irmp_tmp_address &= 0x003F;
                        }
#endif

                        irmp_address = irmp_tmp_address;                            // store address
    288e:	20 91 fa 01 	lds	r18, 0x01FA	; 0x8001fa <irmp_tmp_address>
    2892:	30 91 fb 01 	lds	r19, 0x01FB	; 0x8001fb <irmp_tmp_address+0x1>
    2896:	30 93 02 02 	sts	0x0202, r19	; 0x800202 <irmp_address+0x1>
    289a:	20 93 01 02 	sts	0x0201, r18	; 0x800201 <irmp_address>
    289e:	72 cf       	rjmp	.-284    	; 0x2784 <irmp_ISR+0x676>
        irmp_idle();
    }
#endif // IRMP_USE_IDLE_CALL

    return (irmp_ir_detected);
}
    28a0:	df 91       	pop	r29
    28a2:	cf 91       	pop	r28
    28a4:	08 95       	ret

000028a6 <__vector_33>:
 	TIMSK3 = (1 << OCIE3A);
}

// TIMER 3 Volume increment interrupt service routine, called every inc_duration
ISR(TIMER3_COMPA_vect)
{
    28a6:	1f 92       	push	r1
    28a8:	0f 92       	push	r0
    28aa:	0f b6       	in	r0, 0x3f	; 63
    28ac:	0f 92       	push	r0
    28ae:	11 24       	eor	r1, r1
    28b0:	2f 93       	push	r18
    28b2:	3f 93       	push	r19
    28b4:	4f 93       	push	r20
    28b6:	5f 93       	push	r21
    28b8:	6f 93       	push	r22
    28ba:	7f 93       	push	r23
    28bc:	8f 93       	push	r24
    28be:	9f 93       	push	r25
    28c0:	af 93       	push	r26
    28c2:	bf 93       	push	r27
    28c4:	ef 93       	push	r30
    28c6:	ff 93       	push	r31
	//every INC_DURATION ms
	//clear the prescaler value to stop the counter
	inc_timer_stop();
    28c8:	0e 94 50 05 	call	0xaa0	; 0xaa0 <inc_timer_stop>
}
    28cc:	ff 91       	pop	r31
    28ce:	ef 91       	pop	r30
    28d0:	bf 91       	pop	r27
    28d2:	af 91       	pop	r26
    28d4:	9f 91       	pop	r25
    28d6:	8f 91       	pop	r24
    28d8:	7f 91       	pop	r23
    28da:	6f 91       	pop	r22
    28dc:	5f 91       	pop	r21
    28de:	4f 91       	pop	r20
    28e0:	3f 91       	pop	r19
    28e2:	2f 91       	pop	r18
    28e4:	0f 90       	pop	r0
    28e6:	0f be       	out	0x3f, r0	; 63
    28e8:	0f 90       	pop	r0
    28ea:	1f 90       	pop	r1
    28ec:	18 95       	reti

000028ee <__vector_11>:
	TIMSK1  = 1 << OCIE1A;                  // OCIE1A: Interrupt by timer compare
}		

// TIMER :1 IRMP Interrupt service routine, called every 1/15000 sec
ISR(TIMER1_COMPA_vect)
{
    28ee:	1f 92       	push	r1
    28f0:	0f 92       	push	r0
    28f2:	0f b6       	in	r0, 0x3f	; 63
    28f4:	0f 92       	push	r0
    28f6:	11 24       	eor	r1, r1
    28f8:	2f 93       	push	r18
    28fa:	3f 93       	push	r19
    28fc:	4f 93       	push	r20
    28fe:	5f 93       	push	r21
    2900:	6f 93       	push	r22
    2902:	7f 93       	push	r23
    2904:	8f 93       	push	r24
    2906:	9f 93       	push	r25
    2908:	af 93       	push	r26
    290a:	bf 93       	push	r27
    290c:	ef 93       	push	r30
    290e:	ff 93       	push	r31
	(void) irmp_ISR();	//Call IRMP ISR
    2910:	0e 94 87 10 	call	0x210e	; 0x210e <irmp_ISR>
}
    2914:	ff 91       	pop	r31
    2916:	ef 91       	pop	r30
    2918:	bf 91       	pop	r27
    291a:	af 91       	pop	r26
    291c:	9f 91       	pop	r25
    291e:	8f 91       	pop	r24
    2920:	7f 91       	pop	r23
    2922:	6f 91       	pop	r22
    2924:	5f 91       	pop	r21
    2926:	4f 91       	pop	r20
    2928:	3f 91       	pop	r19
    292a:	2f 91       	pop	r18
    292c:	0f 90       	pop	r0
    292e:	0f be       	out	0x3f, r0	; 63
    2930:	0f 90       	pop	r0
    2932:	1f 90       	pop	r1
    2934:	18 95       	reti

00002936 <adc0_init>:

//ADC0 INIT: Potentiometer position		
void adc0_init(){
	//AREF, Internal Vref turned OFF
	//ADC MUX = 0 (ADC0)
	ADMUX = 0x00;
    2936:	10 92 7c 00 	sts	0x007C, r1	; 0x80007c <__TEXT_REGION_LENGTH__+0x7e007c>
	
	//Enable ADC
	//ADC Interrupt Enable
	//Division Factor = 128
	ADCSRA = ( 1 << ADEN) | (1 << ADIE) |
    293a:	ea e7       	ldi	r30, 0x7A	; 122
    293c:	f0 e0       	ldi	r31, 0x00	; 0
    293e:	8f ea       	ldi	r24, 0xAF	; 175
    2940:	80 83       	st	Z, r24
	( 1 << ADPS0) | (1 << ADPS1) | (1 << ADPS2) |
	( 1 << ADATE);
	//ADCSRB = 0; //Free Running mode
	
	//Start conversion (first result is invalid)
	ADCSRA |= (1 << ADSC);
    2942:	80 81       	ld	r24, Z
    2944:	80 64       	ori	r24, 0x40	; 64
    2946:	80 83       	st	Z, r24
	
	//Disable digital input buffer
	DIDR0 = (1 << ADC0D);
    2948:	81 e0       	ldi	r24, 0x01	; 1
    294a:	80 93 7e 00 	sts	0x007E, r24	; 0x80007e <__TEXT_REGION_LENGTH__+0x7e007e>
    294e:	08 95       	ret

00002950 <__vector_21>:
}
				
// ADC 0
ISR(ADC_vect){
    2950:	1f 92       	push	r1
    2952:	0f 92       	push	r0
    2954:	0f b6       	in	r0, 0x3f	; 63
    2956:	0f 92       	push	r0
    2958:	11 24       	eor	r1, r1
    295a:	8f 93       	push	r24
    295c:	9f 93       	push	r25
	//Read ADC Value
	adc_val = ADC;
    295e:	80 91 78 00 	lds	r24, 0x0078	; 0x800078 <__TEXT_REGION_LENGTH__+0x7e0078>
    2962:	90 91 79 00 	lds	r25, 0x0079	; 0x800079 <__TEXT_REGION_LENGTH__+0x7e0079>
    2966:	90 93 1b 02 	sts	0x021B, r25	; 0x80021b <adc_val+0x1>
    296a:	80 93 1a 02 	sts	0x021A, r24	; 0x80021a <adc_val>
}
    296e:	9f 91       	pop	r25
    2970:	8f 91       	pop	r24
    2972:	0f 90       	pop	r0
    2974:	0f be       	out	0x3f, r0	; 63
    2976:	0f 90       	pop	r0
    2978:	1f 90       	pop	r1
    297a:	18 95       	reti

0000297c <main>:
 * MAIN LOOP
 *------------------------------------------------------------------------------------------------------*/
int main(void)
{
	//Read Data from EEPROM
	ir_keyset_len = eeprom_read_byte(&eeprom_ir_keyset_len);
    297c:	83 e3       	ldi	r24, 0x33	; 51
    297e:	92 e0       	ldi	r25, 0x02	; 2
    2980:	0e 94 55 1c 	call	0x38aa	; 0x38aa <eeprom_read_byte>
    2984:	80 93 17 02 	sts	0x0217, r24	; 0x800217 <ir_keyset_len>
	eeprom_read_block( (void*) ir_keyset , (void*) eeprom_ir_keyset, sizeof(eeprom_ir_keyset));
    2988:	4d ea       	ldi	r20, 0xAD	; 173
    298a:	51 e0       	ldi	r21, 0x01	; 1
    298c:	64 e8       	ldi	r22, 0x84	; 132
    298e:	70 e0       	ldi	r23, 0x00	; 0
    2990:	83 e5       	ldi	r24, 0x53	; 83
    2992:	93 e0       	ldi	r25, 0x03	; 3
    2994:	0e 94 45 1c 	call	0x388a	; 0x388a <eeprom_read_block>
	inc_dur = eeprom_read_word(&eeprom_inc_dur);
    2998:	80 e0       	ldi	r24, 0x00	; 0
    299a:	90 e0       	ldi	r25, 0x00	; 0
    299c:	0e 94 5d 1c 	call	0x38ba	; 0x38ba <eeprom_read_word>
    29a0:	90 93 52 03 	sts	0x0352, r25	; 0x800352 <inc_dur+0x1>
    29a4:	80 93 51 03 	sts	0x0351, r24	; 0x800351 <inc_dur>
	
	//Pin Configurations
	//Direction Control Register (1=output, 0=input)
	DDRB = (1 << ERROR_LED);
    29a8:	80 e2       	ldi	r24, 0x20	; 32
    29aa:	84 b9       	out	0x04, r24	; 4
	DDRC = (1 << PORTC2);
    29ac:	84 e0       	ldi	r24, 0x04	; 4
    29ae:	87 b9       	out	0x07, r24	; 7
	DDRE = (1 << PWR_5V_LED);
    29b0:	82 e0       	ldi	r24, 0x02	; 2
    29b2:	8d b9       	out	0x0d, r24	; 13
	DDRD = (1 << PIN_MOTOR_CW) | (1 << PIN_MOTOR_CCW) | (1 << PWR_3V3_LED);;
    29b4:	8c e2       	ldi	r24, 0x2C	; 44
    29b6:	8a b9       	out	0x0a, r24	; 10
	
	//Pullup Config
	PORTC = 0;				//Deactivate Pullups at Port C
    29b8:	18 b8       	out	0x08, r1	; 8
	//PORTD = 0;			//Deactivate Pullups at Port D
	
	//INIT error LED
	error_led(FALSE);		//Turn off Error LED
    29ba:	80 e0       	ldi	r24, 0x00	; 0
    29bc:	0e 94 c4 05 	call	0xb88	; 0xb88 <error_led>

	//Init 5V Power LED
	if (eeprom_read_byte(&eeprom_pwr_5v_led)){
    29c0:	82 e3       	ldi	r24, 0x32	; 50
    29c2:	92 e0       	ldi	r25, 0x02	; 2
    29c4:	0e 94 55 1c 	call	0x38aa	; 0x38aa <eeprom_read_byte>
    29c8:	88 23       	and	r24, r24
    29ca:	11 f0       	breq	.+4      	; 0x29d0 <main+0x54>
		//Turn LED on
		PORTE |= (1 << PWR_5V_LED);
    29cc:	71 9a       	sbi	0x0e, 1	; 14
    29ce:	01 c0       	rjmp	.+2      	; 0x29d2 <main+0x56>
		} else {
		//Turn LED off
		PORTE &= ~(1 << PWR_5V_LED);
    29d0:	71 98       	cbi	0x0e, 1	; 14
	}

	//Init 3V3 Power LED
	if (eeprom_read_byte(&eeprom_pwr_3v3_led)){
    29d2:	81 e3       	ldi	r24, 0x31	; 49
    29d4:	92 e0       	ldi	r25, 0x02	; 2
    29d6:	0e 94 55 1c 	call	0x38aa	; 0x38aa <eeprom_read_byte>
    29da:	88 23       	and	r24, r24
    29dc:	11 f0       	breq	.+4      	; 0x29e2 <main+0x66>
		//Turn LED on
		PORTD |= (1 << PWR_3V3_LED);
    29de:	5d 9a       	sbi	0x0b, 5	; 11
    29e0:	01 c0       	rjmp	.+2      	; 0x29e4 <main+0x68>
		} else {
		//Turn LED off
		PORTD &= ~(1 << PWR_3V3_LED);
    29e2:	5d 98       	cbi	0x0b, 5	; 11
	}
	
	//Initialize Timers and ADC
    irmp_init();			//initialize IRMP library
    29e4:	0e 94 c4 0f 	call	0x1f88	; 0x1f88 <irmp_init>

// TIMER 1: IRMP Timer		
static void timer1_init (void)
{     
	//16Bit timer
	OCR1A   =  (F_CPU / F_INTERRUPTS) - 1;	// compare value: 1/15000 of CPU frequency
    29e8:	84 e1       	ldi	r24, 0x14	; 20
    29ea:	92 e0       	ldi	r25, 0x02	; 2
    29ec:	90 93 89 00 	sts	0x0089, r25	; 0x800089 <__TEXT_REGION_LENGTH__+0x7e0089>
    29f0:	80 93 88 00 	sts	0x0088, r24	; 0x800088 <__TEXT_REGION_LENGTH__+0x7e0088>
	TCCR1B  = (1 << WGM12) | (1 << CS10);   // switch CTC Mode on, set prescaler to 1
    29f4:	89 e0       	ldi	r24, 0x09	; 9
    29f6:	80 93 81 00 	sts	0x0081, r24	; 0x800081 <__TEXT_REGION_LENGTH__+0x7e0081>
	TIMSK1  = 1 << OCIE1A;                  // OCIE1A: Interrupt by timer compare
    29fa:	c2 e0       	ldi	r28, 0x02	; 2
    29fc:	c0 93 6f 00 	sts	0x006F, r28	; 0x80006f <__TEXT_REGION_LENGTH__+0x7e006f>
// TIMER 3: Volume increment counter
static void timer3_init (void){
	//16Bit Timer
	//TC1 Control Register B
	//Mode 4 - CTC (clear timer on compare)
	TCCR3B =  (1 << WGM32);
    2a00:	88 e0       	ldi	r24, 0x08	; 8
    2a02:	80 93 91 00 	sts	0x0091, r24	; 0x800091 <__TEXT_REGION_LENGTH__+0x7e0091>
	
	//Do not set the prescaler -> timer is not started!

	//Output Compare Register 3 A Low and High byte 
	//Sets the counter value at which the interrupt gets executed
	OCR3A = (uint16_t) TIMER_COMP_VAL(TIMER3_PRESCALER, inc_dur); //16Bit value is correct addressed automatically
    2a06:	60 91 51 03 	lds	r22, 0x0351	; 0x800351 <inc_dur>
    2a0a:	70 91 52 03 	lds	r23, 0x0352	; 0x800352 <inc_dur+0x1>
    2a0e:	80 e0       	ldi	r24, 0x00	; 0
    2a10:	90 e0       	ldi	r25, 0x00	; 0
    2a12:	0e 94 c9 16 	call	0x2d92	; 0x2d92 <__floatunsisf>
    2a16:	20 e0       	ldi	r18, 0x00	; 0
    2a18:	34 e2       	ldi	r19, 0x24	; 36
    2a1a:	44 ef       	ldi	r20, 0xF4	; 244
    2a1c:	5a e4       	ldi	r21, 0x4A	; 74
    2a1e:	0e 94 57 17 	call	0x2eae	; 0x2eae <__mulsf3>
    2a22:	20 e0       	ldi	r18, 0x00	; 0
    2a24:	30 e0       	ldi	r19, 0x00	; 0
    2a26:	40 e8       	ldi	r20, 0x80	; 128
    2a28:	5b e3       	ldi	r21, 0x3B	; 59
    2a2a:	0e 94 57 17 	call	0x2eae	; 0x2eae <__mulsf3>
    2a2e:	20 e0       	ldi	r18, 0x00	; 0
    2a30:	30 e0       	ldi	r19, 0x00	; 0
    2a32:	4a e7       	ldi	r20, 0x7A	; 122
    2a34:	54 e4       	ldi	r21, 0x44	; 68
    2a36:	0e 94 28 16 	call	0x2c50	; 0x2c50 <__divsf3>
    2a3a:	0e 94 9a 16 	call	0x2d34	; 0x2d34 <__fixunssfsi>
    2a3e:	70 93 99 00 	sts	0x0099, r23	; 0x800099 <__TEXT_REGION_LENGTH__+0x7e0099>
    2a42:	60 93 98 00 	sts	0x0098, r22	; 0x800098 <__TEXT_REGION_LENGTH__+0x7e0098>
	
	//Counter 3 Interrupt Mask Register
	//Set OCIE3A Flag: Timer/Counter 3, Output Compare A Match Interrupt Enable
 	TIMSK3 = (1 << OCIE3A);
    2a46:	c0 93 71 00 	sts	0x0071, r28	; 0x800071 <__TEXT_REGION_LENGTH__+0x7e0071>
	
	//Initialize Timers and ADC
    irmp_init();			//initialize IRMP library
	timer1_init();			//IRMP Timer
	timer3_init();			//Volume increment timer
	adc0_init();			//Potentiometer position adc
    2a4a:	0e 94 9b 14 	call	0x2936	; 0x2936 <adc0_init>
	
	//INIT UART
	uart0_init(UART_BAUD_SELECT(BAUDRATE, F_CPU));		//INIT UART0
    2a4e:	88 e0       	ldi	r24, 0x08	; 8
    2a50:	90 e0       	ldi	r25, 0x00	; 0
    2a52:	0e 94 a5 15 	call	0x2b4a	; 0x2b4a <uart0_init>
	//uart1_init(UART_BAUD_SELECT(BAUDRATE, F_CPU));
	
	//Send a firmware identifier via UART0
	uart0_puts_p(PSTR("BC2 VolCtrl FW: "));
    2a56:	8a e9       	ldi	r24, 0x9A	; 154
    2a58:	99 e0       	ldi	r25, 0x09	; 9
    2a5a:	0e 94 08 16 	call	0x2c10	; 0x2c10 <uart0_puts_p>
	uart0_puts_p(PSTR(FW_VERSION));
    2a5e:	85 e9       	ldi	r24, 0x95	; 149
    2a60:	99 e0       	ldi	r25, 0x09	; 9
    2a62:	0e 94 08 16 	call	0x2c10	; 0x2c10 <uart0_puts_p>
	uart0_puts_p(PSTR("\r\n"));
    2a66:	82 e9       	ldi	r24, 0x92	; 146
    2a68:	99 e0       	ldi	r25, 0x09	; 9
    2a6a:	0e 94 08 16 	call	0x2c10	; 0x2c10 <uart0_puts_p>
    2a6e:	2f ef       	ldi	r18, 0xFF	; 255
    2a70:	84 e3       	ldi	r24, 0x34	; 52
    2a72:	9c e0       	ldi	r25, 0x0C	; 12
    2a74:	21 50       	subi	r18, 0x01	; 1
    2a76:	80 40       	sbci	r24, 0x00	; 0
    2a78:	90 40       	sbci	r25, 0x00	; 0
    2a7a:	e1 f7       	brne	.-8      	; 0x2a74 <main+0xf8>
    2a7c:	00 c0       	rjmp	.+0      	; 0x2a7e <main+0x102>
    2a7e:	00 00       	nop
		
	_delay_ms(500);			//wait until the boot message of ESP8266 at 74880 baud has passed
	sei();					//Activate Interrupts
    2a80:	78 94       	sei

	while (1)
	{
		fsm();
    2a82:	0e 94 f4 0c 	call	0x19e8	; 0x19e8 <fsm>
    2a86:	fd cf       	rjmp	.-6      	; 0x2a82 <main+0x106>

00002a88 <__vector_18>:
	/* get data from receive buffer */
	data = UART_RxBuf[tmptail];

	return (UART_LastRxError << 8) + data;

} /* uart0_peek */
    2a88:	1f 92       	push	r1
    2a8a:	0f 92       	push	r0
    2a8c:	0f b6       	in	r0, 0x3f	; 63
    2a8e:	0f 92       	push	r0
    2a90:	11 24       	eor	r1, r1
    2a92:	2f 93       	push	r18
    2a94:	3f 93       	push	r19
    2a96:	4f 93       	push	r20
    2a98:	5f 93       	push	r21
    2a9a:	8f 93       	push	r24
    2a9c:	9f 93       	push	r25
    2a9e:	ef 93       	push	r30
    2aa0:	ff 93       	push	r31
    2aa2:	20 91 c0 00 	lds	r18, 0x00C0	; 0x8000c0 <__TEXT_REGION_LENGTH__+0x7e00c0>
    2aa6:	30 91 c6 00 	lds	r19, 0x00C6	; 0x8000c6 <__TEXT_REGION_LENGTH__+0x7e00c6>
    2aaa:	28 71       	andi	r18, 0x18	; 24
    2aac:	80 91 20 02 	lds	r24, 0x0220	; 0x800220 <UART_RxHead>
    2ab0:	90 e0       	ldi	r25, 0x00	; 0
    2ab2:	01 96       	adiw	r24, 0x01	; 1
    2ab4:	8f 77       	andi	r24, 0x7F	; 127
    2ab6:	99 27       	eor	r25, r25
    2ab8:	40 91 1f 02 	lds	r20, 0x021F	; 0x80021f <UART_RxTail>
    2abc:	50 e0       	ldi	r21, 0x00	; 0
    2abe:	84 17       	cp	r24, r20
    2ac0:	95 07       	cpc	r25, r21
    2ac2:	39 f0       	breq	.+14     	; 0x2ad2 <__vector_18+0x4a>
    2ac4:	80 93 20 02 	sts	0x0220, r24	; 0x800220 <UART_RxHead>
    2ac8:	fc 01       	movw	r30, r24
    2aca:	ed 5d       	subi	r30, 0xDD	; 221
    2acc:	fd 4f       	sbci	r31, 0xFD	; 253
    2ace:	30 83       	st	Z, r19
    2ad0:	01 c0       	rjmp	.+2      	; 0x2ad4 <__vector_18+0x4c>
    2ad2:	22 e0       	ldi	r18, 0x02	; 2
    2ad4:	20 93 1e 02 	sts	0x021E, r18	; 0x80021e <UART_LastRxError>
    2ad8:	ff 91       	pop	r31
    2ada:	ef 91       	pop	r30
    2adc:	9f 91       	pop	r25
    2ade:	8f 91       	pop	r24
    2ae0:	5f 91       	pop	r21
    2ae2:	4f 91       	pop	r20
    2ae4:	3f 91       	pop	r19
    2ae6:	2f 91       	pop	r18
    2ae8:	0f 90       	pop	r0
    2aea:	0f be       	out	0x3f, r0	; 63
    2aec:	0f 90       	pop	r0
    2aee:	1f 90       	pop	r1
    2af0:	18 95       	reti

00002af2 <__vector_19>:
    2af2:	1f 92       	push	r1
    2af4:	0f 92       	push	r0
    2af6:	0f b6       	in	r0, 0x3f	; 63
    2af8:	0f 92       	push	r0
    2afa:	11 24       	eor	r1, r1
    2afc:	8f 93       	push	r24
    2afe:	9f 93       	push	r25
    2b00:	ef 93       	push	r30
    2b02:	ff 93       	push	r31
    2b04:	90 91 22 02 	lds	r25, 0x0222	; 0x800222 <UART_TxHead>
    2b08:	80 91 21 02 	lds	r24, 0x0221	; 0x800221 <UART_TxTail>
    2b0c:	98 17       	cp	r25, r24
    2b0e:	79 f0       	breq	.+30     	; 0x2b2e <__vector_19+0x3c>
    2b10:	80 91 21 02 	lds	r24, 0x0221	; 0x800221 <UART_TxTail>
    2b14:	90 e0       	ldi	r25, 0x00	; 0
    2b16:	01 96       	adiw	r24, 0x01	; 1
    2b18:	8f 77       	andi	r24, 0x7F	; 127
    2b1a:	99 27       	eor	r25, r25
    2b1c:	80 93 21 02 	sts	0x0221, r24	; 0x800221 <UART_TxTail>
    2b20:	fc 01       	movw	r30, r24
    2b22:	ed 55       	subi	r30, 0x5D	; 93
    2b24:	fd 4f       	sbci	r31, 0xFD	; 253
    2b26:	80 81       	ld	r24, Z
    2b28:	80 93 c6 00 	sts	0x00C6, r24	; 0x8000c6 <__TEXT_REGION_LENGTH__+0x7e00c6>
    2b2c:	05 c0       	rjmp	.+10     	; 0x2b38 <__vector_19+0x46>
    2b2e:	e1 ec       	ldi	r30, 0xC1	; 193
    2b30:	f0 e0       	ldi	r31, 0x00	; 0
    2b32:	80 81       	ld	r24, Z
    2b34:	8f 7d       	andi	r24, 0xDF	; 223
    2b36:	80 83       	st	Z, r24
    2b38:	ff 91       	pop	r31
    2b3a:	ef 91       	pop	r30
    2b3c:	9f 91       	pop	r25
    2b3e:	8f 91       	pop	r24
    2b40:	0f 90       	pop	r0
    2b42:	0f be       	out	0x3f, r0	; 63
    2b44:	0f 90       	pop	r0
    2b46:	1f 90       	pop	r1
    2b48:	18 95       	reti

00002b4a <uart0_init>:
    2b4a:	f8 94       	cli
    2b4c:	10 92 22 02 	sts	0x0222, r1	; 0x800222 <UART_TxHead>
    2b50:	10 92 21 02 	sts	0x0221, r1	; 0x800221 <UART_TxTail>
    2b54:	10 92 20 02 	sts	0x0220, r1	; 0x800220 <UART_RxHead>
    2b58:	10 92 1f 02 	sts	0x021F, r1	; 0x80021f <UART_RxTail>
    2b5c:	78 94       	sei
    2b5e:	99 23       	and	r25, r25
    2b60:	24 f4       	brge	.+8      	; 0x2b6a <uart0_init+0x20>
    2b62:	22 e0       	ldi	r18, 0x02	; 2
    2b64:	20 93 c0 00 	sts	0x00C0, r18	; 0x8000c0 <__TEXT_REGION_LENGTH__+0x7e00c0>
    2b68:	9f 77       	andi	r25, 0x7F	; 127
    2b6a:	90 93 c5 00 	sts	0x00C5, r25	; 0x8000c5 <__TEXT_REGION_LENGTH__+0x7e00c5>
    2b6e:	80 93 c4 00 	sts	0x00C4, r24	; 0x8000c4 <__TEXT_REGION_LENGTH__+0x7e00c4>
    2b72:	88 e9       	ldi	r24, 0x98	; 152
    2b74:	80 93 c1 00 	sts	0x00C1, r24	; 0x8000c1 <__TEXT_REGION_LENGTH__+0x7e00c1>
    2b78:	86 e0       	ldi	r24, 0x06	; 6
    2b7a:	80 93 c2 00 	sts	0x00C2, r24	; 0x8000c2 <__TEXT_REGION_LENGTH__+0x7e00c2>
    2b7e:	08 95       	ret

00002b80 <uart0_getc>:
    2b80:	f8 94       	cli
    2b82:	90 91 20 02 	lds	r25, 0x0220	; 0x800220 <UART_RxHead>
    2b86:	80 91 1f 02 	lds	r24, 0x021F	; 0x80021f <UART_RxTail>
    2b8a:	98 13       	cpse	r25, r24
    2b8c:	04 c0       	rjmp	.+8      	; 0x2b96 <uart0_getc+0x16>
    2b8e:	78 94       	sei
    2b90:	80 e0       	ldi	r24, 0x00	; 0
    2b92:	91 e0       	ldi	r25, 0x01	; 1
    2b94:	08 95       	ret
    2b96:	78 94       	sei
    2b98:	80 91 1f 02 	lds	r24, 0x021F	; 0x80021f <UART_RxTail>
    2b9c:	90 e0       	ldi	r25, 0x00	; 0
    2b9e:	01 96       	adiw	r24, 0x01	; 1
    2ba0:	8f 77       	andi	r24, 0x7F	; 127
    2ba2:	99 27       	eor	r25, r25
    2ba4:	80 93 1f 02 	sts	0x021F, r24	; 0x80021f <UART_RxTail>
    2ba8:	fc 01       	movw	r30, r24
    2baa:	ed 5d       	subi	r30, 0xDD	; 221
    2bac:	fd 4f       	sbci	r31, 0xFD	; 253
    2bae:	20 81       	ld	r18, Z
    2bb0:	80 91 1e 02 	lds	r24, 0x021E	; 0x80021e <UART_LastRxError>
    2bb4:	90 e0       	ldi	r25, 0x00	; 0
    2bb6:	98 2f       	mov	r25, r24
    2bb8:	88 27       	eor	r24, r24
    2bba:	82 0f       	add	r24, r18
    2bbc:	91 1d       	adc	r25, r1
    2bbe:	08 95       	ret

00002bc0 <uart0_putc>:
		}
	} while (tmphead == txtail_tmp); /* wait for free space in buffer */
#else
	uint16_t tmphead;
	
	tmphead = (UART_TxHead + 1) & UART_TX0_BUFFER_MASK;
    2bc0:	40 91 22 02 	lds	r20, 0x0222	; 0x800222 <UART_TxHead>
    2bc4:	50 e0       	ldi	r21, 0x00	; 0
    2bc6:	4f 5f       	subi	r20, 0xFF	; 255
    2bc8:	5f 4f       	sbci	r21, 0xFF	; 255
    2bca:	4f 77       	andi	r20, 0x7F	; 127
    2bcc:	55 27       	eor	r21, r21
	
	while (tmphead == UART_TxTail); /* wait for free space in buffer */
    2bce:	20 91 21 02 	lds	r18, 0x0221	; 0x800221 <UART_TxTail>
    2bd2:	30 e0       	ldi	r19, 0x00	; 0
    2bd4:	42 17       	cp	r20, r18
    2bd6:	53 07       	cpc	r21, r19
    2bd8:	d1 f3       	breq	.-12     	; 0x2bce <uart0_putc+0xe>
#endif

	UART_TxBuf[tmphead] = data;
    2bda:	fa 01       	movw	r30, r20
    2bdc:	ed 55       	subi	r30, 0x5D	; 93
    2bde:	fd 4f       	sbci	r31, 0xFD	; 253
    2be0:	80 83       	st	Z, r24
	UART_TxHead = tmphead;
    2be2:	40 93 22 02 	sts	0x0222, r20	; 0x800222 <UART_TxHead>

	/* enable UDRE interrupt */
	UART0_CONTROL |= _BV(UART0_UDRIE);
    2be6:	e1 ec       	ldi	r30, 0xC1	; 193
    2be8:	f0 e0       	ldi	r31, 0x00	; 0
    2bea:	80 81       	ld	r24, Z
    2bec:	80 62       	ori	r24, 0x20	; 32
    2bee:	80 83       	st	Z, r24
    2bf0:	08 95       	ret

00002bf2 <uart0_puts>:
Purpose:  transmit string to UART
Input:    string to be transmitted
Returns:  none
**************************************************************************/
void uart0_puts(const char *s)
{
    2bf2:	cf 93       	push	r28
    2bf4:	df 93       	push	r29
    2bf6:	ec 01       	movw	r28, r24
	while (*s) {
    2bf8:	88 81       	ld	r24, Y
    2bfa:	88 23       	and	r24, r24
    2bfc:	31 f0       	breq	.+12     	; 0x2c0a <uart0_puts+0x18>
    2bfe:	21 96       	adiw	r28, 0x01	; 1
		uart0_putc(*s++);
    2c00:	0e 94 e0 15 	call	0x2bc0	; 0x2bc0 <uart0_putc>
Input:    string to be transmitted
Returns:  none
**************************************************************************/
void uart0_puts(const char *s)
{
	while (*s) {
    2c04:	89 91       	ld	r24, Y+
    2c06:	81 11       	cpse	r24, r1
    2c08:	fb cf       	rjmp	.-10     	; 0x2c00 <uart0_puts+0xe>
		uart0_putc(*s++);
	}

} /* uart0_puts */
    2c0a:	df 91       	pop	r29
    2c0c:	cf 91       	pop	r28
    2c0e:	08 95       	ret

00002c10 <uart0_puts_p>:
Purpose:  transmit string from program memory to UART
Input:    program memory string to be transmitted
Returns:  none
**************************************************************************/
void uart0_puts_p(const char *progmem_s)
{
    2c10:	cf 93       	push	r28
    2c12:	df 93       	push	r29
	register char c;

	while ((c = pgm_read_byte(progmem_s++))) {
    2c14:	ec 01       	movw	r28, r24
    2c16:	21 96       	adiw	r28, 0x01	; 1
    2c18:	fc 01       	movw	r30, r24
    2c1a:	84 91       	lpm	r24, Z
    2c1c:	88 23       	and	r24, r24
    2c1e:	39 f0       	breq	.+14     	; 0x2c2e <uart0_puts_p+0x1e>
		uart0_putc(c);
    2c20:	0e 94 e0 15 	call	0x2bc0	; 0x2bc0 <uart0_putc>
**************************************************************************/
void uart0_puts_p(const char *progmem_s)
{
	register char c;

	while ((c = pgm_read_byte(progmem_s++))) {
    2c24:	fe 01       	movw	r30, r28
    2c26:	84 91       	lpm	r24, Z
    2c28:	21 96       	adiw	r28, 0x01	; 1
    2c2a:	81 11       	cpse	r24, r1
    2c2c:	f9 cf       	rjmp	.-14     	; 0x2c20 <uart0_puts_p+0x10>
		uart0_putc(c);
	}

} /* uart0_puts_p */
    2c2e:	df 91       	pop	r29
    2c30:	cf 91       	pop	r28
    2c32:	08 95       	ret

00002c34 <uart0_available>:
    return 1;
}

static __inline__ uint8_t __iCliRetVal(void)
{
    cli();
    2c34:	f8 94       	cli
uint16_t uart0_available(void)
{
	uint16_t ret;
	
	ATOMIC_BLOCK(ATOMIC_FORCEON) {
		ret = (UART_RX0_BUFFER_SIZE + UART_RxHead - UART_RxTail) & UART_RX0_BUFFER_MASK;
    2c36:	80 91 20 02 	lds	r24, 0x0220	; 0x800220 <UART_RxHead>
    2c3a:	20 91 1f 02 	lds	r18, 0x021F	; 0x80021f <UART_RxTail>
    return 1;
}

static __inline__ void __iSeiParam(const uint8_t *__s)
{
    sei();
    2c3e:	78 94       	sei
	}
	return ret;
    2c40:	90 e0       	ldi	r25, 0x00	; 0
    2c42:	80 58       	subi	r24, 0x80	; 128
    2c44:	9f 4f       	sbci	r25, 0xFF	; 255
    2c46:	82 1b       	sub	r24, r18
    2c48:	91 09       	sbc	r25, r1
} /* uart0_available */
    2c4a:	8f 77       	andi	r24, 0x7F	; 127
    2c4c:	99 27       	eor	r25, r25
    2c4e:	08 95       	ret

00002c50 <__divsf3>:
    2c50:	0e 94 3c 16 	call	0x2c78	; 0x2c78 <__divsf3x>
    2c54:	0c 94 1d 17 	jmp	0x2e3a	; 0x2e3a <__fp_round>
    2c58:	0e 94 16 17 	call	0x2e2c	; 0x2e2c <__fp_pscB>
    2c5c:	58 f0       	brcs	.+22     	; 0x2c74 <__divsf3+0x24>
    2c5e:	0e 94 0f 17 	call	0x2e1e	; 0x2e1e <__fp_pscA>
    2c62:	40 f0       	brcs	.+16     	; 0x2c74 <__divsf3+0x24>
    2c64:	29 f4       	brne	.+10     	; 0x2c70 <__divsf3+0x20>
    2c66:	5f 3f       	cpi	r21, 0xFF	; 255
    2c68:	29 f0       	breq	.+10     	; 0x2c74 <__divsf3+0x24>
    2c6a:	0c 94 06 17 	jmp	0x2e0c	; 0x2e0c <__fp_inf>
    2c6e:	51 11       	cpse	r21, r1
    2c70:	0c 94 51 17 	jmp	0x2ea2	; 0x2ea2 <__fp_szero>
    2c74:	0c 94 0c 17 	jmp	0x2e18	; 0x2e18 <__fp_nan>

00002c78 <__divsf3x>:
    2c78:	0e 94 2e 17 	call	0x2e5c	; 0x2e5c <__fp_split3>
    2c7c:	68 f3       	brcs	.-38     	; 0x2c58 <__divsf3+0x8>

00002c7e <__divsf3_pse>:
    2c7e:	99 23       	and	r25, r25
    2c80:	b1 f3       	breq	.-20     	; 0x2c6e <__divsf3+0x1e>
    2c82:	55 23       	and	r21, r21
    2c84:	91 f3       	breq	.-28     	; 0x2c6a <__divsf3+0x1a>
    2c86:	95 1b       	sub	r25, r21
    2c88:	55 0b       	sbc	r21, r21
    2c8a:	bb 27       	eor	r27, r27
    2c8c:	aa 27       	eor	r26, r26
    2c8e:	62 17       	cp	r22, r18
    2c90:	73 07       	cpc	r23, r19
    2c92:	84 07       	cpc	r24, r20
    2c94:	38 f0       	brcs	.+14     	; 0x2ca4 <__divsf3_pse+0x26>
    2c96:	9f 5f       	subi	r25, 0xFF	; 255
    2c98:	5f 4f       	sbci	r21, 0xFF	; 255
    2c9a:	22 0f       	add	r18, r18
    2c9c:	33 1f       	adc	r19, r19
    2c9e:	44 1f       	adc	r20, r20
    2ca0:	aa 1f       	adc	r26, r26
    2ca2:	a9 f3       	breq	.-22     	; 0x2c8e <__divsf3_pse+0x10>
    2ca4:	35 d0       	rcall	.+106    	; 0x2d10 <__divsf3_pse+0x92>
    2ca6:	0e 2e       	mov	r0, r30
    2ca8:	3a f0       	brmi	.+14     	; 0x2cb8 <__divsf3_pse+0x3a>
    2caa:	e0 e8       	ldi	r30, 0x80	; 128
    2cac:	32 d0       	rcall	.+100    	; 0x2d12 <__divsf3_pse+0x94>
    2cae:	91 50       	subi	r25, 0x01	; 1
    2cb0:	50 40       	sbci	r21, 0x00	; 0
    2cb2:	e6 95       	lsr	r30
    2cb4:	00 1c       	adc	r0, r0
    2cb6:	ca f7       	brpl	.-14     	; 0x2caa <__divsf3_pse+0x2c>
    2cb8:	2b d0       	rcall	.+86     	; 0x2d10 <__divsf3_pse+0x92>
    2cba:	fe 2f       	mov	r31, r30
    2cbc:	29 d0       	rcall	.+82     	; 0x2d10 <__divsf3_pse+0x92>
    2cbe:	66 0f       	add	r22, r22
    2cc0:	77 1f       	adc	r23, r23
    2cc2:	88 1f       	adc	r24, r24
    2cc4:	bb 1f       	adc	r27, r27
    2cc6:	26 17       	cp	r18, r22
    2cc8:	37 07       	cpc	r19, r23
    2cca:	48 07       	cpc	r20, r24
    2ccc:	ab 07       	cpc	r26, r27
    2cce:	b0 e8       	ldi	r27, 0x80	; 128
    2cd0:	09 f0       	breq	.+2      	; 0x2cd4 <__divsf3_pse+0x56>
    2cd2:	bb 0b       	sbc	r27, r27
    2cd4:	80 2d       	mov	r24, r0
    2cd6:	bf 01       	movw	r22, r30
    2cd8:	ff 27       	eor	r31, r31
    2cda:	93 58       	subi	r25, 0x83	; 131
    2cdc:	5f 4f       	sbci	r21, 0xFF	; 255
    2cde:	3a f0       	brmi	.+14     	; 0x2cee <__divsf3_pse+0x70>
    2ce0:	9e 3f       	cpi	r25, 0xFE	; 254
    2ce2:	51 05       	cpc	r21, r1
    2ce4:	78 f0       	brcs	.+30     	; 0x2d04 <__divsf3_pse+0x86>
    2ce6:	0c 94 06 17 	jmp	0x2e0c	; 0x2e0c <__fp_inf>
    2cea:	0c 94 51 17 	jmp	0x2ea2	; 0x2ea2 <__fp_szero>
    2cee:	5f 3f       	cpi	r21, 0xFF	; 255
    2cf0:	e4 f3       	brlt	.-8      	; 0x2cea <__divsf3_pse+0x6c>
    2cf2:	98 3e       	cpi	r25, 0xE8	; 232
    2cf4:	d4 f3       	brlt	.-12     	; 0x2cea <__divsf3_pse+0x6c>
    2cf6:	86 95       	lsr	r24
    2cf8:	77 95       	ror	r23
    2cfa:	67 95       	ror	r22
    2cfc:	b7 95       	ror	r27
    2cfe:	f7 95       	ror	r31
    2d00:	9f 5f       	subi	r25, 0xFF	; 255
    2d02:	c9 f7       	brne	.-14     	; 0x2cf6 <__divsf3_pse+0x78>
    2d04:	88 0f       	add	r24, r24
    2d06:	91 1d       	adc	r25, r1
    2d08:	96 95       	lsr	r25
    2d0a:	87 95       	ror	r24
    2d0c:	97 f9       	bld	r25, 7
    2d0e:	08 95       	ret
    2d10:	e1 e0       	ldi	r30, 0x01	; 1
    2d12:	66 0f       	add	r22, r22
    2d14:	77 1f       	adc	r23, r23
    2d16:	88 1f       	adc	r24, r24
    2d18:	bb 1f       	adc	r27, r27
    2d1a:	62 17       	cp	r22, r18
    2d1c:	73 07       	cpc	r23, r19
    2d1e:	84 07       	cpc	r24, r20
    2d20:	ba 07       	cpc	r27, r26
    2d22:	20 f0       	brcs	.+8      	; 0x2d2c <__divsf3_pse+0xae>
    2d24:	62 1b       	sub	r22, r18
    2d26:	73 0b       	sbc	r23, r19
    2d28:	84 0b       	sbc	r24, r20
    2d2a:	ba 0b       	sbc	r27, r26
    2d2c:	ee 1f       	adc	r30, r30
    2d2e:	88 f7       	brcc	.-30     	; 0x2d12 <__divsf3_pse+0x94>
    2d30:	e0 95       	com	r30
    2d32:	08 95       	ret

00002d34 <__fixunssfsi>:
    2d34:	0e 94 36 17 	call	0x2e6c	; 0x2e6c <__fp_splitA>
    2d38:	88 f0       	brcs	.+34     	; 0x2d5c <__fixunssfsi+0x28>
    2d3a:	9f 57       	subi	r25, 0x7F	; 127
    2d3c:	98 f0       	brcs	.+38     	; 0x2d64 <__fixunssfsi+0x30>
    2d3e:	b9 2f       	mov	r27, r25
    2d40:	99 27       	eor	r25, r25
    2d42:	b7 51       	subi	r27, 0x17	; 23
    2d44:	b0 f0       	brcs	.+44     	; 0x2d72 <__fixunssfsi+0x3e>
    2d46:	e1 f0       	breq	.+56     	; 0x2d80 <__fixunssfsi+0x4c>
    2d48:	66 0f       	add	r22, r22
    2d4a:	77 1f       	adc	r23, r23
    2d4c:	88 1f       	adc	r24, r24
    2d4e:	99 1f       	adc	r25, r25
    2d50:	1a f0       	brmi	.+6      	; 0x2d58 <__fixunssfsi+0x24>
    2d52:	ba 95       	dec	r27
    2d54:	c9 f7       	brne	.-14     	; 0x2d48 <__fixunssfsi+0x14>
    2d56:	14 c0       	rjmp	.+40     	; 0x2d80 <__fixunssfsi+0x4c>
    2d58:	b1 30       	cpi	r27, 0x01	; 1
    2d5a:	91 f0       	breq	.+36     	; 0x2d80 <__fixunssfsi+0x4c>
    2d5c:	0e 94 50 17 	call	0x2ea0	; 0x2ea0 <__fp_zero>
    2d60:	b1 e0       	ldi	r27, 0x01	; 1
    2d62:	08 95       	ret
    2d64:	0c 94 50 17 	jmp	0x2ea0	; 0x2ea0 <__fp_zero>
    2d68:	67 2f       	mov	r22, r23
    2d6a:	78 2f       	mov	r23, r24
    2d6c:	88 27       	eor	r24, r24
    2d6e:	b8 5f       	subi	r27, 0xF8	; 248
    2d70:	39 f0       	breq	.+14     	; 0x2d80 <__fixunssfsi+0x4c>
    2d72:	b9 3f       	cpi	r27, 0xF9	; 249
    2d74:	cc f3       	brlt	.-14     	; 0x2d68 <__fixunssfsi+0x34>
    2d76:	86 95       	lsr	r24
    2d78:	77 95       	ror	r23
    2d7a:	67 95       	ror	r22
    2d7c:	b3 95       	inc	r27
    2d7e:	d9 f7       	brne	.-10     	; 0x2d76 <__fixunssfsi+0x42>
    2d80:	3e f4       	brtc	.+14     	; 0x2d90 <__fixunssfsi+0x5c>
    2d82:	90 95       	com	r25
    2d84:	80 95       	com	r24
    2d86:	70 95       	com	r23
    2d88:	61 95       	neg	r22
    2d8a:	7f 4f       	sbci	r23, 0xFF	; 255
    2d8c:	8f 4f       	sbci	r24, 0xFF	; 255
    2d8e:	9f 4f       	sbci	r25, 0xFF	; 255
    2d90:	08 95       	ret

00002d92 <__floatunsisf>:
    2d92:	e8 94       	clt
    2d94:	09 c0       	rjmp	.+18     	; 0x2da8 <__floatsisf+0x12>

00002d96 <__floatsisf>:
    2d96:	97 fb       	bst	r25, 7
    2d98:	3e f4       	brtc	.+14     	; 0x2da8 <__floatsisf+0x12>
    2d9a:	90 95       	com	r25
    2d9c:	80 95       	com	r24
    2d9e:	70 95       	com	r23
    2da0:	61 95       	neg	r22
    2da2:	7f 4f       	sbci	r23, 0xFF	; 255
    2da4:	8f 4f       	sbci	r24, 0xFF	; 255
    2da6:	9f 4f       	sbci	r25, 0xFF	; 255
    2da8:	99 23       	and	r25, r25
    2daa:	a9 f0       	breq	.+42     	; 0x2dd6 <__floatsisf+0x40>
    2dac:	f9 2f       	mov	r31, r25
    2dae:	96 e9       	ldi	r25, 0x96	; 150
    2db0:	bb 27       	eor	r27, r27
    2db2:	93 95       	inc	r25
    2db4:	f6 95       	lsr	r31
    2db6:	87 95       	ror	r24
    2db8:	77 95       	ror	r23
    2dba:	67 95       	ror	r22
    2dbc:	b7 95       	ror	r27
    2dbe:	f1 11       	cpse	r31, r1
    2dc0:	f8 cf       	rjmp	.-16     	; 0x2db2 <__floatsisf+0x1c>
    2dc2:	fa f4       	brpl	.+62     	; 0x2e02 <__floatsisf+0x6c>
    2dc4:	bb 0f       	add	r27, r27
    2dc6:	11 f4       	brne	.+4      	; 0x2dcc <__floatsisf+0x36>
    2dc8:	60 ff       	sbrs	r22, 0
    2dca:	1b c0       	rjmp	.+54     	; 0x2e02 <__floatsisf+0x6c>
    2dcc:	6f 5f       	subi	r22, 0xFF	; 255
    2dce:	7f 4f       	sbci	r23, 0xFF	; 255
    2dd0:	8f 4f       	sbci	r24, 0xFF	; 255
    2dd2:	9f 4f       	sbci	r25, 0xFF	; 255
    2dd4:	16 c0       	rjmp	.+44     	; 0x2e02 <__floatsisf+0x6c>
    2dd6:	88 23       	and	r24, r24
    2dd8:	11 f0       	breq	.+4      	; 0x2dde <__floatsisf+0x48>
    2dda:	96 e9       	ldi	r25, 0x96	; 150
    2ddc:	11 c0       	rjmp	.+34     	; 0x2e00 <__floatsisf+0x6a>
    2dde:	77 23       	and	r23, r23
    2de0:	21 f0       	breq	.+8      	; 0x2dea <__floatsisf+0x54>
    2de2:	9e e8       	ldi	r25, 0x8E	; 142
    2de4:	87 2f       	mov	r24, r23
    2de6:	76 2f       	mov	r23, r22
    2de8:	05 c0       	rjmp	.+10     	; 0x2df4 <__floatsisf+0x5e>
    2dea:	66 23       	and	r22, r22
    2dec:	71 f0       	breq	.+28     	; 0x2e0a <__floatsisf+0x74>
    2dee:	96 e8       	ldi	r25, 0x86	; 134
    2df0:	86 2f       	mov	r24, r22
    2df2:	70 e0       	ldi	r23, 0x00	; 0
    2df4:	60 e0       	ldi	r22, 0x00	; 0
    2df6:	2a f0       	brmi	.+10     	; 0x2e02 <__floatsisf+0x6c>
    2df8:	9a 95       	dec	r25
    2dfa:	66 0f       	add	r22, r22
    2dfc:	77 1f       	adc	r23, r23
    2dfe:	88 1f       	adc	r24, r24
    2e00:	da f7       	brpl	.-10     	; 0x2df8 <__floatsisf+0x62>
    2e02:	88 0f       	add	r24, r24
    2e04:	96 95       	lsr	r25
    2e06:	87 95       	ror	r24
    2e08:	97 f9       	bld	r25, 7
    2e0a:	08 95       	ret

00002e0c <__fp_inf>:
    2e0c:	97 f9       	bld	r25, 7
    2e0e:	9f 67       	ori	r25, 0x7F	; 127
    2e10:	80 e8       	ldi	r24, 0x80	; 128
    2e12:	70 e0       	ldi	r23, 0x00	; 0
    2e14:	60 e0       	ldi	r22, 0x00	; 0
    2e16:	08 95       	ret

00002e18 <__fp_nan>:
    2e18:	9f ef       	ldi	r25, 0xFF	; 255
    2e1a:	80 ec       	ldi	r24, 0xC0	; 192
    2e1c:	08 95       	ret

00002e1e <__fp_pscA>:
    2e1e:	00 24       	eor	r0, r0
    2e20:	0a 94       	dec	r0
    2e22:	16 16       	cp	r1, r22
    2e24:	17 06       	cpc	r1, r23
    2e26:	18 06       	cpc	r1, r24
    2e28:	09 06       	cpc	r0, r25
    2e2a:	08 95       	ret

00002e2c <__fp_pscB>:
    2e2c:	00 24       	eor	r0, r0
    2e2e:	0a 94       	dec	r0
    2e30:	12 16       	cp	r1, r18
    2e32:	13 06       	cpc	r1, r19
    2e34:	14 06       	cpc	r1, r20
    2e36:	05 06       	cpc	r0, r21
    2e38:	08 95       	ret

00002e3a <__fp_round>:
    2e3a:	09 2e       	mov	r0, r25
    2e3c:	03 94       	inc	r0
    2e3e:	00 0c       	add	r0, r0
    2e40:	11 f4       	brne	.+4      	; 0x2e46 <__fp_round+0xc>
    2e42:	88 23       	and	r24, r24
    2e44:	52 f0       	brmi	.+20     	; 0x2e5a <__fp_round+0x20>
    2e46:	bb 0f       	add	r27, r27
    2e48:	40 f4       	brcc	.+16     	; 0x2e5a <__fp_round+0x20>
    2e4a:	bf 2b       	or	r27, r31
    2e4c:	11 f4       	brne	.+4      	; 0x2e52 <__fp_round+0x18>
    2e4e:	60 ff       	sbrs	r22, 0
    2e50:	04 c0       	rjmp	.+8      	; 0x2e5a <__fp_round+0x20>
    2e52:	6f 5f       	subi	r22, 0xFF	; 255
    2e54:	7f 4f       	sbci	r23, 0xFF	; 255
    2e56:	8f 4f       	sbci	r24, 0xFF	; 255
    2e58:	9f 4f       	sbci	r25, 0xFF	; 255
    2e5a:	08 95       	ret

00002e5c <__fp_split3>:
    2e5c:	57 fd       	sbrc	r21, 7
    2e5e:	90 58       	subi	r25, 0x80	; 128
    2e60:	44 0f       	add	r20, r20
    2e62:	55 1f       	adc	r21, r21
    2e64:	59 f0       	breq	.+22     	; 0x2e7c <__fp_splitA+0x10>
    2e66:	5f 3f       	cpi	r21, 0xFF	; 255
    2e68:	71 f0       	breq	.+28     	; 0x2e86 <__fp_splitA+0x1a>
    2e6a:	47 95       	ror	r20

00002e6c <__fp_splitA>:
    2e6c:	88 0f       	add	r24, r24
    2e6e:	97 fb       	bst	r25, 7
    2e70:	99 1f       	adc	r25, r25
    2e72:	61 f0       	breq	.+24     	; 0x2e8c <__fp_splitA+0x20>
    2e74:	9f 3f       	cpi	r25, 0xFF	; 255
    2e76:	79 f0       	breq	.+30     	; 0x2e96 <__fp_splitA+0x2a>
    2e78:	87 95       	ror	r24
    2e7a:	08 95       	ret
    2e7c:	12 16       	cp	r1, r18
    2e7e:	13 06       	cpc	r1, r19
    2e80:	14 06       	cpc	r1, r20
    2e82:	55 1f       	adc	r21, r21
    2e84:	f2 cf       	rjmp	.-28     	; 0x2e6a <__fp_split3+0xe>
    2e86:	46 95       	lsr	r20
    2e88:	f1 df       	rcall	.-30     	; 0x2e6c <__fp_splitA>
    2e8a:	08 c0       	rjmp	.+16     	; 0x2e9c <__fp_splitA+0x30>
    2e8c:	16 16       	cp	r1, r22
    2e8e:	17 06       	cpc	r1, r23
    2e90:	18 06       	cpc	r1, r24
    2e92:	99 1f       	adc	r25, r25
    2e94:	f1 cf       	rjmp	.-30     	; 0x2e78 <__fp_splitA+0xc>
    2e96:	86 95       	lsr	r24
    2e98:	71 05       	cpc	r23, r1
    2e9a:	61 05       	cpc	r22, r1
    2e9c:	08 94       	sec
    2e9e:	08 95       	ret

00002ea0 <__fp_zero>:
    2ea0:	e8 94       	clt

00002ea2 <__fp_szero>:
    2ea2:	bb 27       	eor	r27, r27
    2ea4:	66 27       	eor	r22, r22
    2ea6:	77 27       	eor	r23, r23
    2ea8:	cb 01       	movw	r24, r22
    2eaa:	97 f9       	bld	r25, 7
    2eac:	08 95       	ret

00002eae <__mulsf3>:
    2eae:	0e 94 6a 17 	call	0x2ed4	; 0x2ed4 <__mulsf3x>
    2eb2:	0c 94 1d 17 	jmp	0x2e3a	; 0x2e3a <__fp_round>
    2eb6:	0e 94 0f 17 	call	0x2e1e	; 0x2e1e <__fp_pscA>
    2eba:	38 f0       	brcs	.+14     	; 0x2eca <__mulsf3+0x1c>
    2ebc:	0e 94 16 17 	call	0x2e2c	; 0x2e2c <__fp_pscB>
    2ec0:	20 f0       	brcs	.+8      	; 0x2eca <__mulsf3+0x1c>
    2ec2:	95 23       	and	r25, r21
    2ec4:	11 f0       	breq	.+4      	; 0x2eca <__mulsf3+0x1c>
    2ec6:	0c 94 06 17 	jmp	0x2e0c	; 0x2e0c <__fp_inf>
    2eca:	0c 94 0c 17 	jmp	0x2e18	; 0x2e18 <__fp_nan>
    2ece:	11 24       	eor	r1, r1
    2ed0:	0c 94 51 17 	jmp	0x2ea2	; 0x2ea2 <__fp_szero>

00002ed4 <__mulsf3x>:
    2ed4:	0e 94 2e 17 	call	0x2e5c	; 0x2e5c <__fp_split3>
    2ed8:	70 f3       	brcs	.-36     	; 0x2eb6 <__mulsf3+0x8>

00002eda <__mulsf3_pse>:
    2eda:	95 9f       	mul	r25, r21
    2edc:	c1 f3       	breq	.-16     	; 0x2ece <__mulsf3+0x20>
    2ede:	95 0f       	add	r25, r21
    2ee0:	50 e0       	ldi	r21, 0x00	; 0
    2ee2:	55 1f       	adc	r21, r21
    2ee4:	62 9f       	mul	r22, r18
    2ee6:	f0 01       	movw	r30, r0
    2ee8:	72 9f       	mul	r23, r18
    2eea:	bb 27       	eor	r27, r27
    2eec:	f0 0d       	add	r31, r0
    2eee:	b1 1d       	adc	r27, r1
    2ef0:	63 9f       	mul	r22, r19
    2ef2:	aa 27       	eor	r26, r26
    2ef4:	f0 0d       	add	r31, r0
    2ef6:	b1 1d       	adc	r27, r1
    2ef8:	aa 1f       	adc	r26, r26
    2efa:	64 9f       	mul	r22, r20
    2efc:	66 27       	eor	r22, r22
    2efe:	b0 0d       	add	r27, r0
    2f00:	a1 1d       	adc	r26, r1
    2f02:	66 1f       	adc	r22, r22
    2f04:	82 9f       	mul	r24, r18
    2f06:	22 27       	eor	r18, r18
    2f08:	b0 0d       	add	r27, r0
    2f0a:	a1 1d       	adc	r26, r1
    2f0c:	62 1f       	adc	r22, r18
    2f0e:	73 9f       	mul	r23, r19
    2f10:	b0 0d       	add	r27, r0
    2f12:	a1 1d       	adc	r26, r1
    2f14:	62 1f       	adc	r22, r18
    2f16:	83 9f       	mul	r24, r19
    2f18:	a0 0d       	add	r26, r0
    2f1a:	61 1d       	adc	r22, r1
    2f1c:	22 1f       	adc	r18, r18
    2f1e:	74 9f       	mul	r23, r20
    2f20:	33 27       	eor	r19, r19
    2f22:	a0 0d       	add	r26, r0
    2f24:	61 1d       	adc	r22, r1
    2f26:	23 1f       	adc	r18, r19
    2f28:	84 9f       	mul	r24, r20
    2f2a:	60 0d       	add	r22, r0
    2f2c:	21 1d       	adc	r18, r1
    2f2e:	82 2f       	mov	r24, r18
    2f30:	76 2f       	mov	r23, r22
    2f32:	6a 2f       	mov	r22, r26
    2f34:	11 24       	eor	r1, r1
    2f36:	9f 57       	subi	r25, 0x7F	; 127
    2f38:	50 40       	sbci	r21, 0x00	; 0
    2f3a:	9a f0       	brmi	.+38     	; 0x2f62 <__mulsf3_pse+0x88>
    2f3c:	f1 f0       	breq	.+60     	; 0x2f7a <__mulsf3_pse+0xa0>
    2f3e:	88 23       	and	r24, r24
    2f40:	4a f0       	brmi	.+18     	; 0x2f54 <__mulsf3_pse+0x7a>
    2f42:	ee 0f       	add	r30, r30
    2f44:	ff 1f       	adc	r31, r31
    2f46:	bb 1f       	adc	r27, r27
    2f48:	66 1f       	adc	r22, r22
    2f4a:	77 1f       	adc	r23, r23
    2f4c:	88 1f       	adc	r24, r24
    2f4e:	91 50       	subi	r25, 0x01	; 1
    2f50:	50 40       	sbci	r21, 0x00	; 0
    2f52:	a9 f7       	brne	.-22     	; 0x2f3e <__mulsf3_pse+0x64>
    2f54:	9e 3f       	cpi	r25, 0xFE	; 254
    2f56:	51 05       	cpc	r21, r1
    2f58:	80 f0       	brcs	.+32     	; 0x2f7a <__mulsf3_pse+0xa0>
    2f5a:	0c 94 06 17 	jmp	0x2e0c	; 0x2e0c <__fp_inf>
    2f5e:	0c 94 51 17 	jmp	0x2ea2	; 0x2ea2 <__fp_szero>
    2f62:	5f 3f       	cpi	r21, 0xFF	; 255
    2f64:	e4 f3       	brlt	.-8      	; 0x2f5e <__mulsf3_pse+0x84>
    2f66:	98 3e       	cpi	r25, 0xE8	; 232
    2f68:	d4 f3       	brlt	.-12     	; 0x2f5e <__mulsf3_pse+0x84>
    2f6a:	86 95       	lsr	r24
    2f6c:	77 95       	ror	r23
    2f6e:	67 95       	ror	r22
    2f70:	b7 95       	ror	r27
    2f72:	f7 95       	ror	r31
    2f74:	e7 95       	ror	r30
    2f76:	9f 5f       	subi	r25, 0xFF	; 255
    2f78:	c1 f7       	brne	.-16     	; 0x2f6a <__mulsf3_pse+0x90>
    2f7a:	fe 2b       	or	r31, r30
    2f7c:	88 0f       	add	r24, r24
    2f7e:	91 1d       	adc	r25, r1
    2f80:	96 95       	lsr	r25
    2f82:	87 95       	ror	r24
    2f84:	97 f9       	bld	r25, 7
    2f86:	08 95       	ret

00002f88 <__tablejump2__>:
    2f88:	ee 0f       	add	r30, r30
    2f8a:	ff 1f       	adc	r31, r31
    2f8c:	05 90       	lpm	r0, Z+
    2f8e:	f4 91       	lpm	r31, Z
    2f90:	e0 2d       	mov	r30, r0
    2f92:	09 94       	ijmp

00002f94 <malloc>:
    2f94:	0f 93       	push	r16
    2f96:	1f 93       	push	r17
    2f98:	cf 93       	push	r28
    2f9a:	df 93       	push	r29
    2f9c:	82 30       	cpi	r24, 0x02	; 2
    2f9e:	91 05       	cpc	r25, r1
    2fa0:	10 f4       	brcc	.+4      	; 0x2fa6 <malloc+0x12>
    2fa2:	82 e0       	ldi	r24, 0x02	; 2
    2fa4:	90 e0       	ldi	r25, 0x00	; 0
    2fa6:	e0 91 02 05 	lds	r30, 0x0502	; 0x800502 <__flp>
    2faa:	f0 91 03 05 	lds	r31, 0x0503	; 0x800503 <__flp+0x1>
    2fae:	20 e0       	ldi	r18, 0x00	; 0
    2fb0:	30 e0       	ldi	r19, 0x00	; 0
    2fb2:	a0 e0       	ldi	r26, 0x00	; 0
    2fb4:	b0 e0       	ldi	r27, 0x00	; 0
    2fb6:	30 97       	sbiw	r30, 0x00	; 0
    2fb8:	19 f1       	breq	.+70     	; 0x3000 <malloc+0x6c>
    2fba:	40 81       	ld	r20, Z
    2fbc:	51 81       	ldd	r21, Z+1	; 0x01
    2fbe:	02 81       	ldd	r16, Z+2	; 0x02
    2fc0:	13 81       	ldd	r17, Z+3	; 0x03
    2fc2:	48 17       	cp	r20, r24
    2fc4:	59 07       	cpc	r21, r25
    2fc6:	c8 f0       	brcs	.+50     	; 0x2ffa <malloc+0x66>
    2fc8:	84 17       	cp	r24, r20
    2fca:	95 07       	cpc	r25, r21
    2fcc:	69 f4       	brne	.+26     	; 0x2fe8 <malloc+0x54>
    2fce:	10 97       	sbiw	r26, 0x00	; 0
    2fd0:	31 f0       	breq	.+12     	; 0x2fde <malloc+0x4a>
    2fd2:	12 96       	adiw	r26, 0x02	; 2
    2fd4:	0c 93       	st	X, r16
    2fd6:	12 97       	sbiw	r26, 0x02	; 2
    2fd8:	13 96       	adiw	r26, 0x03	; 3
    2fda:	1c 93       	st	X, r17
    2fdc:	27 c0       	rjmp	.+78     	; 0x302c <malloc+0x98>
    2fde:	00 93 02 05 	sts	0x0502, r16	; 0x800502 <__flp>
    2fe2:	10 93 03 05 	sts	0x0503, r17	; 0x800503 <__flp+0x1>
    2fe6:	22 c0       	rjmp	.+68     	; 0x302c <malloc+0x98>
    2fe8:	21 15       	cp	r18, r1
    2fea:	31 05       	cpc	r19, r1
    2fec:	19 f0       	breq	.+6      	; 0x2ff4 <malloc+0x60>
    2fee:	42 17       	cp	r20, r18
    2ff0:	53 07       	cpc	r21, r19
    2ff2:	18 f4       	brcc	.+6      	; 0x2ffa <malloc+0x66>
    2ff4:	9a 01       	movw	r18, r20
    2ff6:	bd 01       	movw	r22, r26
    2ff8:	ef 01       	movw	r28, r30
    2ffa:	df 01       	movw	r26, r30
    2ffc:	f8 01       	movw	r30, r16
    2ffe:	db cf       	rjmp	.-74     	; 0x2fb6 <malloc+0x22>
    3000:	21 15       	cp	r18, r1
    3002:	31 05       	cpc	r19, r1
    3004:	f9 f0       	breq	.+62     	; 0x3044 <malloc+0xb0>
    3006:	28 1b       	sub	r18, r24
    3008:	39 0b       	sbc	r19, r25
    300a:	24 30       	cpi	r18, 0x04	; 4
    300c:	31 05       	cpc	r19, r1
    300e:	80 f4       	brcc	.+32     	; 0x3030 <malloc+0x9c>
    3010:	8a 81       	ldd	r24, Y+2	; 0x02
    3012:	9b 81       	ldd	r25, Y+3	; 0x03
    3014:	61 15       	cp	r22, r1
    3016:	71 05       	cpc	r23, r1
    3018:	21 f0       	breq	.+8      	; 0x3022 <malloc+0x8e>
    301a:	fb 01       	movw	r30, r22
    301c:	93 83       	std	Z+3, r25	; 0x03
    301e:	82 83       	std	Z+2, r24	; 0x02
    3020:	04 c0       	rjmp	.+8      	; 0x302a <malloc+0x96>
    3022:	90 93 03 05 	sts	0x0503, r25	; 0x800503 <__flp+0x1>
    3026:	80 93 02 05 	sts	0x0502, r24	; 0x800502 <__flp>
    302a:	fe 01       	movw	r30, r28
    302c:	32 96       	adiw	r30, 0x02	; 2
    302e:	44 c0       	rjmp	.+136    	; 0x30b8 <malloc+0x124>
    3030:	fe 01       	movw	r30, r28
    3032:	e2 0f       	add	r30, r18
    3034:	f3 1f       	adc	r31, r19
    3036:	81 93       	st	Z+, r24
    3038:	91 93       	st	Z+, r25
    303a:	22 50       	subi	r18, 0x02	; 2
    303c:	31 09       	sbc	r19, r1
    303e:	39 83       	std	Y+1, r19	; 0x01
    3040:	28 83       	st	Y, r18
    3042:	3a c0       	rjmp	.+116    	; 0x30b8 <malloc+0x124>
    3044:	20 91 00 05 	lds	r18, 0x0500	; 0x800500 <__brkval>
    3048:	30 91 01 05 	lds	r19, 0x0501	; 0x800501 <__brkval+0x1>
    304c:	23 2b       	or	r18, r19
    304e:	41 f4       	brne	.+16     	; 0x3060 <malloc+0xcc>
    3050:	20 91 02 01 	lds	r18, 0x0102	; 0x800102 <__malloc_heap_start>
    3054:	30 91 03 01 	lds	r19, 0x0103	; 0x800103 <__malloc_heap_start+0x1>
    3058:	30 93 01 05 	sts	0x0501, r19	; 0x800501 <__brkval+0x1>
    305c:	20 93 00 05 	sts	0x0500, r18	; 0x800500 <__brkval>
    3060:	20 91 00 01 	lds	r18, 0x0100	; 0x800100 <__data_start>
    3064:	30 91 01 01 	lds	r19, 0x0101	; 0x800101 <__data_start+0x1>
    3068:	21 15       	cp	r18, r1
    306a:	31 05       	cpc	r19, r1
    306c:	41 f4       	brne	.+16     	; 0x307e <malloc+0xea>
    306e:	2d b7       	in	r18, 0x3d	; 61
    3070:	3e b7       	in	r19, 0x3e	; 62
    3072:	40 91 04 01 	lds	r20, 0x0104	; 0x800104 <__malloc_margin>
    3076:	50 91 05 01 	lds	r21, 0x0105	; 0x800105 <__malloc_margin+0x1>
    307a:	24 1b       	sub	r18, r20
    307c:	35 0b       	sbc	r19, r21
    307e:	e0 91 00 05 	lds	r30, 0x0500	; 0x800500 <__brkval>
    3082:	f0 91 01 05 	lds	r31, 0x0501	; 0x800501 <__brkval+0x1>
    3086:	e2 17       	cp	r30, r18
    3088:	f3 07       	cpc	r31, r19
    308a:	a0 f4       	brcc	.+40     	; 0x30b4 <malloc+0x120>
    308c:	2e 1b       	sub	r18, r30
    308e:	3f 0b       	sbc	r19, r31
    3090:	28 17       	cp	r18, r24
    3092:	39 07       	cpc	r19, r25
    3094:	78 f0       	brcs	.+30     	; 0x30b4 <malloc+0x120>
    3096:	ac 01       	movw	r20, r24
    3098:	4e 5f       	subi	r20, 0xFE	; 254
    309a:	5f 4f       	sbci	r21, 0xFF	; 255
    309c:	24 17       	cp	r18, r20
    309e:	35 07       	cpc	r19, r21
    30a0:	48 f0       	brcs	.+18     	; 0x30b4 <malloc+0x120>
    30a2:	4e 0f       	add	r20, r30
    30a4:	5f 1f       	adc	r21, r31
    30a6:	50 93 01 05 	sts	0x0501, r21	; 0x800501 <__brkval+0x1>
    30aa:	40 93 00 05 	sts	0x0500, r20	; 0x800500 <__brkval>
    30ae:	81 93       	st	Z+, r24
    30b0:	91 93       	st	Z+, r25
    30b2:	02 c0       	rjmp	.+4      	; 0x30b8 <malloc+0x124>
    30b4:	e0 e0       	ldi	r30, 0x00	; 0
    30b6:	f0 e0       	ldi	r31, 0x00	; 0
    30b8:	cf 01       	movw	r24, r30
    30ba:	df 91       	pop	r29
    30bc:	cf 91       	pop	r28
    30be:	1f 91       	pop	r17
    30c0:	0f 91       	pop	r16
    30c2:	08 95       	ret

000030c4 <free>:
    30c4:	cf 93       	push	r28
    30c6:	df 93       	push	r29
    30c8:	00 97       	sbiw	r24, 0x00	; 0
    30ca:	09 f4       	brne	.+2      	; 0x30ce <free+0xa>
    30cc:	81 c0       	rjmp	.+258    	; 0x31d0 <free+0x10c>
    30ce:	fc 01       	movw	r30, r24
    30d0:	32 97       	sbiw	r30, 0x02	; 2
    30d2:	13 82       	std	Z+3, r1	; 0x03
    30d4:	12 82       	std	Z+2, r1	; 0x02
    30d6:	a0 91 02 05 	lds	r26, 0x0502	; 0x800502 <__flp>
    30da:	b0 91 03 05 	lds	r27, 0x0503	; 0x800503 <__flp+0x1>
    30de:	10 97       	sbiw	r26, 0x00	; 0
    30e0:	81 f4       	brne	.+32     	; 0x3102 <free+0x3e>
    30e2:	20 81       	ld	r18, Z
    30e4:	31 81       	ldd	r19, Z+1	; 0x01
    30e6:	82 0f       	add	r24, r18
    30e8:	93 1f       	adc	r25, r19
    30ea:	20 91 00 05 	lds	r18, 0x0500	; 0x800500 <__brkval>
    30ee:	30 91 01 05 	lds	r19, 0x0501	; 0x800501 <__brkval+0x1>
    30f2:	28 17       	cp	r18, r24
    30f4:	39 07       	cpc	r19, r25
    30f6:	51 f5       	brne	.+84     	; 0x314c <free+0x88>
    30f8:	f0 93 01 05 	sts	0x0501, r31	; 0x800501 <__brkval+0x1>
    30fc:	e0 93 00 05 	sts	0x0500, r30	; 0x800500 <__brkval>
    3100:	67 c0       	rjmp	.+206    	; 0x31d0 <free+0x10c>
    3102:	ed 01       	movw	r28, r26
    3104:	20 e0       	ldi	r18, 0x00	; 0
    3106:	30 e0       	ldi	r19, 0x00	; 0
    3108:	ce 17       	cp	r28, r30
    310a:	df 07       	cpc	r29, r31
    310c:	40 f4       	brcc	.+16     	; 0x311e <free+0x5a>
    310e:	4a 81       	ldd	r20, Y+2	; 0x02
    3110:	5b 81       	ldd	r21, Y+3	; 0x03
    3112:	9e 01       	movw	r18, r28
    3114:	41 15       	cp	r20, r1
    3116:	51 05       	cpc	r21, r1
    3118:	f1 f0       	breq	.+60     	; 0x3156 <free+0x92>
    311a:	ea 01       	movw	r28, r20
    311c:	f5 cf       	rjmp	.-22     	; 0x3108 <free+0x44>
    311e:	d3 83       	std	Z+3, r29	; 0x03
    3120:	c2 83       	std	Z+2, r28	; 0x02
    3122:	40 81       	ld	r20, Z
    3124:	51 81       	ldd	r21, Z+1	; 0x01
    3126:	84 0f       	add	r24, r20
    3128:	95 1f       	adc	r25, r21
    312a:	c8 17       	cp	r28, r24
    312c:	d9 07       	cpc	r29, r25
    312e:	59 f4       	brne	.+22     	; 0x3146 <free+0x82>
    3130:	88 81       	ld	r24, Y
    3132:	99 81       	ldd	r25, Y+1	; 0x01
    3134:	84 0f       	add	r24, r20
    3136:	95 1f       	adc	r25, r21
    3138:	02 96       	adiw	r24, 0x02	; 2
    313a:	91 83       	std	Z+1, r25	; 0x01
    313c:	80 83       	st	Z, r24
    313e:	8a 81       	ldd	r24, Y+2	; 0x02
    3140:	9b 81       	ldd	r25, Y+3	; 0x03
    3142:	93 83       	std	Z+3, r25	; 0x03
    3144:	82 83       	std	Z+2, r24	; 0x02
    3146:	21 15       	cp	r18, r1
    3148:	31 05       	cpc	r19, r1
    314a:	29 f4       	brne	.+10     	; 0x3156 <free+0x92>
    314c:	f0 93 03 05 	sts	0x0503, r31	; 0x800503 <__flp+0x1>
    3150:	e0 93 02 05 	sts	0x0502, r30	; 0x800502 <__flp>
    3154:	3d c0       	rjmp	.+122    	; 0x31d0 <free+0x10c>
    3156:	e9 01       	movw	r28, r18
    3158:	fb 83       	std	Y+3, r31	; 0x03
    315a:	ea 83       	std	Y+2, r30	; 0x02
    315c:	49 91       	ld	r20, Y+
    315e:	59 91       	ld	r21, Y+
    3160:	c4 0f       	add	r28, r20
    3162:	d5 1f       	adc	r29, r21
    3164:	ec 17       	cp	r30, r28
    3166:	fd 07       	cpc	r31, r29
    3168:	61 f4       	brne	.+24     	; 0x3182 <free+0xbe>
    316a:	80 81       	ld	r24, Z
    316c:	91 81       	ldd	r25, Z+1	; 0x01
    316e:	84 0f       	add	r24, r20
    3170:	95 1f       	adc	r25, r21
    3172:	02 96       	adiw	r24, 0x02	; 2
    3174:	e9 01       	movw	r28, r18
    3176:	99 83       	std	Y+1, r25	; 0x01
    3178:	88 83       	st	Y, r24
    317a:	82 81       	ldd	r24, Z+2	; 0x02
    317c:	93 81       	ldd	r25, Z+3	; 0x03
    317e:	9b 83       	std	Y+3, r25	; 0x03
    3180:	8a 83       	std	Y+2, r24	; 0x02
    3182:	e0 e0       	ldi	r30, 0x00	; 0
    3184:	f0 e0       	ldi	r31, 0x00	; 0
    3186:	12 96       	adiw	r26, 0x02	; 2
    3188:	8d 91       	ld	r24, X+
    318a:	9c 91       	ld	r25, X
    318c:	13 97       	sbiw	r26, 0x03	; 3
    318e:	00 97       	sbiw	r24, 0x00	; 0
    3190:	19 f0       	breq	.+6      	; 0x3198 <free+0xd4>
    3192:	fd 01       	movw	r30, r26
    3194:	dc 01       	movw	r26, r24
    3196:	f7 cf       	rjmp	.-18     	; 0x3186 <free+0xc2>
    3198:	8d 91       	ld	r24, X+
    319a:	9c 91       	ld	r25, X
    319c:	11 97       	sbiw	r26, 0x01	; 1
    319e:	9d 01       	movw	r18, r26
    31a0:	2e 5f       	subi	r18, 0xFE	; 254
    31a2:	3f 4f       	sbci	r19, 0xFF	; 255
    31a4:	82 0f       	add	r24, r18
    31a6:	93 1f       	adc	r25, r19
    31a8:	20 91 00 05 	lds	r18, 0x0500	; 0x800500 <__brkval>
    31ac:	30 91 01 05 	lds	r19, 0x0501	; 0x800501 <__brkval+0x1>
    31b0:	28 17       	cp	r18, r24
    31b2:	39 07       	cpc	r19, r25
    31b4:	69 f4       	brne	.+26     	; 0x31d0 <free+0x10c>
    31b6:	30 97       	sbiw	r30, 0x00	; 0
    31b8:	29 f4       	brne	.+10     	; 0x31c4 <free+0x100>
    31ba:	10 92 03 05 	sts	0x0503, r1	; 0x800503 <__flp+0x1>
    31be:	10 92 02 05 	sts	0x0502, r1	; 0x800502 <__flp>
    31c2:	02 c0       	rjmp	.+4      	; 0x31c8 <free+0x104>
    31c4:	13 82       	std	Z+3, r1	; 0x03
    31c6:	12 82       	std	Z+2, r1	; 0x02
    31c8:	b0 93 01 05 	sts	0x0501, r27	; 0x800501 <__brkval+0x1>
    31cc:	a0 93 00 05 	sts	0x0500, r26	; 0x800500 <__brkval>
    31d0:	df 91       	pop	r29
    31d2:	cf 91       	pop	r28
    31d4:	08 95       	ret

000031d6 <atoi>:
    31d6:	fc 01       	movw	r30, r24
    31d8:	88 27       	eor	r24, r24
    31da:	99 27       	eor	r25, r25
    31dc:	e8 94       	clt
    31de:	21 91       	ld	r18, Z+
    31e0:	20 32       	cpi	r18, 0x20	; 32
    31e2:	e9 f3       	breq	.-6      	; 0x31de <atoi+0x8>
    31e4:	29 30       	cpi	r18, 0x09	; 9
    31e6:	10 f0       	brcs	.+4      	; 0x31ec <atoi+0x16>
    31e8:	2e 30       	cpi	r18, 0x0E	; 14
    31ea:	c8 f3       	brcs	.-14     	; 0x31de <atoi+0x8>
    31ec:	2b 32       	cpi	r18, 0x2B	; 43
    31ee:	41 f0       	breq	.+16     	; 0x3200 <atoi+0x2a>
    31f0:	2d 32       	cpi	r18, 0x2D	; 45
    31f2:	39 f4       	brne	.+14     	; 0x3202 <atoi+0x2c>
    31f4:	68 94       	set
    31f6:	04 c0       	rjmp	.+8      	; 0x3200 <atoi+0x2a>
    31f8:	0e 94 82 19 	call	0x3304	; 0x3304 <__mulhi_const_10>
    31fc:	82 0f       	add	r24, r18
    31fe:	91 1d       	adc	r25, r1
    3200:	21 91       	ld	r18, Z+
    3202:	20 53       	subi	r18, 0x30	; 48
    3204:	2a 30       	cpi	r18, 0x0A	; 10
    3206:	c0 f3       	brcs	.-16     	; 0x31f8 <atoi+0x22>
    3208:	1e f4       	brtc	.+6      	; 0x3210 <atoi+0x3a>
    320a:	90 95       	com	r25
    320c:	81 95       	neg	r24
    320e:	9f 4f       	sbci	r25, 0xFF	; 255
    3210:	08 95       	ret

00003212 <memcpy_P>:
    3212:	fb 01       	movw	r30, r22
    3214:	dc 01       	movw	r26, r24
    3216:	02 c0       	rjmp	.+4      	; 0x321c <memcpy_P+0xa>
    3218:	05 90       	lpm	r0, Z+
    321a:	0d 92       	st	X+, r0
    321c:	41 50       	subi	r20, 0x01	; 1
    321e:	50 40       	sbci	r21, 0x00	; 0
    3220:	d8 f7       	brcc	.-10     	; 0x3218 <memcpy_P+0x6>
    3222:	08 95       	ret

00003224 <strcpy_P>:
    3224:	fb 01       	movw	r30, r22
    3226:	dc 01       	movw	r26, r24
    3228:	05 90       	lpm	r0, Z+
    322a:	0d 92       	st	X+, r0
    322c:	00 20       	and	r0, r0
    322e:	e1 f7       	brne	.-8      	; 0x3228 <strcpy_P+0x4>
    3230:	08 95       	ret

00003232 <strtok>:
    3232:	4a ea       	ldi	r20, 0xAA	; 170
    3234:	51 e0       	ldi	r21, 0x01	; 1
    3236:	0e 94 50 19 	call	0x32a0	; 0x32a0 <strtok_r>
    323a:	08 95       	ret

0000323c <memcmp>:
    323c:	fb 01       	movw	r30, r22
    323e:	dc 01       	movw	r26, r24
    3240:	04 c0       	rjmp	.+8      	; 0x324a <memcmp+0xe>
    3242:	8d 91       	ld	r24, X+
    3244:	01 90       	ld	r0, Z+
    3246:	80 19       	sub	r24, r0
    3248:	21 f4       	brne	.+8      	; 0x3252 <memcmp+0x16>
    324a:	41 50       	subi	r20, 0x01	; 1
    324c:	50 40       	sbci	r21, 0x00	; 0
    324e:	c8 f7       	brcc	.-14     	; 0x3242 <memcmp+0x6>
    3250:	88 1b       	sub	r24, r24
    3252:	99 0b       	sbc	r25, r25
    3254:	08 95       	ret

00003256 <strcat>:
    3256:	fb 01       	movw	r30, r22
    3258:	dc 01       	movw	r26, r24
    325a:	0d 90       	ld	r0, X+
    325c:	00 20       	and	r0, r0
    325e:	e9 f7       	brne	.-6      	; 0x325a <strcat+0x4>
    3260:	11 97       	sbiw	r26, 0x01	; 1
    3262:	01 90       	ld	r0, Z+
    3264:	0d 92       	st	X+, r0
    3266:	00 20       	and	r0, r0
    3268:	e1 f7       	brne	.-8      	; 0x3262 <strcat+0xc>
    326a:	08 95       	ret

0000326c <strcmp>:
    326c:	fb 01       	movw	r30, r22
    326e:	dc 01       	movw	r26, r24
    3270:	8d 91       	ld	r24, X+
    3272:	01 90       	ld	r0, Z+
    3274:	80 19       	sub	r24, r0
    3276:	01 10       	cpse	r0, r1
    3278:	d9 f3       	breq	.-10     	; 0x3270 <strcmp+0x4>
    327a:	99 0b       	sbc	r25, r25
    327c:	08 95       	ret

0000327e <strcpy>:
    327e:	fb 01       	movw	r30, r22
    3280:	dc 01       	movw	r26, r24
    3282:	01 90       	ld	r0, Z+
    3284:	0d 92       	st	X+, r0
    3286:	00 20       	and	r0, r0
    3288:	e1 f7       	brne	.-8      	; 0x3282 <strcpy+0x4>
    328a:	08 95       	ret

0000328c <strlwr>:
    328c:	dc 01       	movw	r26, r24
    328e:	6c 91       	ld	r22, X
    3290:	61 54       	subi	r22, 0x41	; 65
    3292:	6a 31       	cpi	r22, 0x1A	; 26
    3294:	08 f0       	brcs	.+2      	; 0x3298 <strlwr+0xc>
    3296:	60 52       	subi	r22, 0x20	; 32
    3298:	6f 59       	subi	r22, 0x9F	; 159
    329a:	6d 93       	st	X+, r22
    329c:	c1 f7       	brne	.-16     	; 0x328e <strlwr+0x2>
    329e:	08 95       	ret

000032a0 <strtok_r>:
    32a0:	fa 01       	movw	r30, r20
    32a2:	a1 91       	ld	r26, Z+
    32a4:	b0 81       	ld	r27, Z
    32a6:	00 97       	sbiw	r24, 0x00	; 0
    32a8:	19 f4       	brne	.+6      	; 0x32b0 <strtok_r+0x10>
    32aa:	10 97       	sbiw	r26, 0x00	; 0
    32ac:	e1 f0       	breq	.+56     	; 0x32e6 <strtok_r+0x46>
    32ae:	cd 01       	movw	r24, r26
    32b0:	dc 01       	movw	r26, r24
    32b2:	cd 01       	movw	r24, r26
    32b4:	0d 90       	ld	r0, X+
    32b6:	00 20       	and	r0, r0
    32b8:	11 f4       	brne	.+4      	; 0x32be <strtok_r+0x1e>
    32ba:	c0 01       	movw	r24, r0
    32bc:	13 c0       	rjmp	.+38     	; 0x32e4 <strtok_r+0x44>
    32be:	fb 01       	movw	r30, r22
    32c0:	21 91       	ld	r18, Z+
    32c2:	22 23       	and	r18, r18
    32c4:	19 f0       	breq	.+6      	; 0x32cc <strtok_r+0x2c>
    32c6:	20 15       	cp	r18, r0
    32c8:	d9 f7       	brne	.-10     	; 0x32c0 <strtok_r+0x20>
    32ca:	f3 cf       	rjmp	.-26     	; 0x32b2 <strtok_r+0x12>
    32cc:	fb 01       	movw	r30, r22
    32ce:	21 91       	ld	r18, Z+
    32d0:	20 15       	cp	r18, r0
    32d2:	19 f4       	brne	.+6      	; 0x32da <strtok_r+0x3a>
    32d4:	1e 92       	st	-X, r1
    32d6:	11 96       	adiw	r26, 0x01	; 1
    32d8:	06 c0       	rjmp	.+12     	; 0x32e6 <strtok_r+0x46>
    32da:	22 23       	and	r18, r18
    32dc:	c1 f7       	brne	.-16     	; 0x32ce <strtok_r+0x2e>
    32de:	0d 90       	ld	r0, X+
    32e0:	00 20       	and	r0, r0
    32e2:	a1 f7       	brne	.-24     	; 0x32cc <strtok_r+0x2c>
    32e4:	d0 01       	movw	r26, r0
    32e6:	fa 01       	movw	r30, r20
    32e8:	a1 93       	st	Z+, r26
    32ea:	b0 83       	st	Z, r27
    32ec:	08 95       	ret

000032ee <__itoa_ncheck>:
    32ee:	bb 27       	eor	r27, r27
    32f0:	4a 30       	cpi	r20, 0x0A	; 10
    32f2:	31 f4       	brne	.+12     	; 0x3300 <__itoa_ncheck+0x12>
    32f4:	99 23       	and	r25, r25
    32f6:	22 f4       	brpl	.+8      	; 0x3300 <__itoa_ncheck+0x12>
    32f8:	bd e2       	ldi	r27, 0x2D	; 45
    32fa:	90 95       	com	r25
    32fc:	81 95       	neg	r24
    32fe:	9f 4f       	sbci	r25, 0xFF	; 255
    3300:	0c 94 8b 19 	jmp	0x3316	; 0x3316 <__utoa_common>

00003304 <__mulhi_const_10>:
    3304:	7a e0       	ldi	r23, 0x0A	; 10
    3306:	97 9f       	mul	r25, r23
    3308:	90 2d       	mov	r25, r0
    330a:	87 9f       	mul	r24, r23
    330c:	80 2d       	mov	r24, r0
    330e:	91 0d       	add	r25, r1
    3310:	11 24       	eor	r1, r1
    3312:	08 95       	ret

00003314 <__utoa_ncheck>:
    3314:	bb 27       	eor	r27, r27

00003316 <__utoa_common>:
    3316:	fb 01       	movw	r30, r22
    3318:	55 27       	eor	r21, r21
    331a:	aa 27       	eor	r26, r26
    331c:	88 0f       	add	r24, r24
    331e:	99 1f       	adc	r25, r25
    3320:	aa 1f       	adc	r26, r26
    3322:	a4 17       	cp	r26, r20
    3324:	10 f0       	brcs	.+4      	; 0x332a <__utoa_common+0x14>
    3326:	a4 1b       	sub	r26, r20
    3328:	83 95       	inc	r24
    332a:	50 51       	subi	r21, 0x10	; 16
    332c:	b9 f7       	brne	.-18     	; 0x331c <__utoa_common+0x6>
    332e:	a0 5d       	subi	r26, 0xD0	; 208
    3330:	aa 33       	cpi	r26, 0x3A	; 58
    3332:	08 f0       	brcs	.+2      	; 0x3336 <__utoa_common+0x20>
    3334:	a9 5d       	subi	r26, 0xD9	; 217
    3336:	a1 93       	st	Z+, r26
    3338:	00 97       	sbiw	r24, 0x00	; 0
    333a:	79 f7       	brne	.-34     	; 0x331a <__utoa_common+0x4>
    333c:	b1 11       	cpse	r27, r1
    333e:	b1 93       	st	Z+, r27
    3340:	11 92       	st	Z+, r1
    3342:	cb 01       	movw	r24, r22
    3344:	0c 94 9b 1b 	jmp	0x3736	; 0x3736 <strrev>

00003348 <vfprintf>:
    3348:	ab e0       	ldi	r26, 0x0B	; 11
    334a:	b0 e0       	ldi	r27, 0x00	; 0
    334c:	ea ea       	ldi	r30, 0xAA	; 170
    334e:	f9 e1       	ldi	r31, 0x19	; 25
    3350:	0c 94 a3 1c 	jmp	0x3946	; 0x3946 <__prologue_saves__>
    3354:	6c 01       	movw	r12, r24
    3356:	7b 01       	movw	r14, r22
    3358:	8a 01       	movw	r16, r20
    335a:	fc 01       	movw	r30, r24
    335c:	17 82       	std	Z+7, r1	; 0x07
    335e:	16 82       	std	Z+6, r1	; 0x06
    3360:	83 81       	ldd	r24, Z+3	; 0x03
    3362:	81 ff       	sbrs	r24, 1
    3364:	cc c1       	rjmp	.+920    	; 0x36fe <vfprintf+0x3b6>
    3366:	ce 01       	movw	r24, r28
    3368:	01 96       	adiw	r24, 0x01	; 1
    336a:	3c 01       	movw	r6, r24
    336c:	f6 01       	movw	r30, r12
    336e:	93 81       	ldd	r25, Z+3	; 0x03
    3370:	f7 01       	movw	r30, r14
    3372:	93 fd       	sbrc	r25, 3
    3374:	85 91       	lpm	r24, Z+
    3376:	93 ff       	sbrs	r25, 3
    3378:	81 91       	ld	r24, Z+
    337a:	7f 01       	movw	r14, r30
    337c:	88 23       	and	r24, r24
    337e:	09 f4       	brne	.+2      	; 0x3382 <vfprintf+0x3a>
    3380:	ba c1       	rjmp	.+884    	; 0x36f6 <vfprintf+0x3ae>
    3382:	85 32       	cpi	r24, 0x25	; 37
    3384:	39 f4       	brne	.+14     	; 0x3394 <vfprintf+0x4c>
    3386:	93 fd       	sbrc	r25, 3
    3388:	85 91       	lpm	r24, Z+
    338a:	93 ff       	sbrs	r25, 3
    338c:	81 91       	ld	r24, Z+
    338e:	7f 01       	movw	r14, r30
    3390:	85 32       	cpi	r24, 0x25	; 37
    3392:	29 f4       	brne	.+10     	; 0x339e <vfprintf+0x56>
    3394:	b6 01       	movw	r22, r12
    3396:	90 e0       	ldi	r25, 0x00	; 0
    3398:	0e 94 ab 1b 	call	0x3756	; 0x3756 <fputc>
    339c:	e7 cf       	rjmp	.-50     	; 0x336c <vfprintf+0x24>
    339e:	91 2c       	mov	r9, r1
    33a0:	21 2c       	mov	r2, r1
    33a2:	31 2c       	mov	r3, r1
    33a4:	ff e1       	ldi	r31, 0x1F	; 31
    33a6:	f3 15       	cp	r31, r3
    33a8:	d8 f0       	brcs	.+54     	; 0x33e0 <vfprintf+0x98>
    33aa:	8b 32       	cpi	r24, 0x2B	; 43
    33ac:	79 f0       	breq	.+30     	; 0x33cc <vfprintf+0x84>
    33ae:	38 f4       	brcc	.+14     	; 0x33be <vfprintf+0x76>
    33b0:	80 32       	cpi	r24, 0x20	; 32
    33b2:	79 f0       	breq	.+30     	; 0x33d2 <vfprintf+0x8a>
    33b4:	83 32       	cpi	r24, 0x23	; 35
    33b6:	a1 f4       	brne	.+40     	; 0x33e0 <vfprintf+0x98>
    33b8:	23 2d       	mov	r18, r3
    33ba:	20 61       	ori	r18, 0x10	; 16
    33bc:	1d c0       	rjmp	.+58     	; 0x33f8 <vfprintf+0xb0>
    33be:	8d 32       	cpi	r24, 0x2D	; 45
    33c0:	61 f0       	breq	.+24     	; 0x33da <vfprintf+0x92>
    33c2:	80 33       	cpi	r24, 0x30	; 48
    33c4:	69 f4       	brne	.+26     	; 0x33e0 <vfprintf+0x98>
    33c6:	23 2d       	mov	r18, r3
    33c8:	21 60       	ori	r18, 0x01	; 1
    33ca:	16 c0       	rjmp	.+44     	; 0x33f8 <vfprintf+0xb0>
    33cc:	83 2d       	mov	r24, r3
    33ce:	82 60       	ori	r24, 0x02	; 2
    33d0:	38 2e       	mov	r3, r24
    33d2:	e3 2d       	mov	r30, r3
    33d4:	e4 60       	ori	r30, 0x04	; 4
    33d6:	3e 2e       	mov	r3, r30
    33d8:	2a c0       	rjmp	.+84     	; 0x342e <vfprintf+0xe6>
    33da:	f3 2d       	mov	r31, r3
    33dc:	f8 60       	ori	r31, 0x08	; 8
    33de:	1d c0       	rjmp	.+58     	; 0x341a <vfprintf+0xd2>
    33e0:	37 fc       	sbrc	r3, 7
    33e2:	2d c0       	rjmp	.+90     	; 0x343e <vfprintf+0xf6>
    33e4:	20 ed       	ldi	r18, 0xD0	; 208
    33e6:	28 0f       	add	r18, r24
    33e8:	2a 30       	cpi	r18, 0x0A	; 10
    33ea:	40 f0       	brcs	.+16     	; 0x33fc <vfprintf+0xb4>
    33ec:	8e 32       	cpi	r24, 0x2E	; 46
    33ee:	b9 f4       	brne	.+46     	; 0x341e <vfprintf+0xd6>
    33f0:	36 fc       	sbrc	r3, 6
    33f2:	81 c1       	rjmp	.+770    	; 0x36f6 <vfprintf+0x3ae>
    33f4:	23 2d       	mov	r18, r3
    33f6:	20 64       	ori	r18, 0x40	; 64
    33f8:	32 2e       	mov	r3, r18
    33fa:	19 c0       	rjmp	.+50     	; 0x342e <vfprintf+0xe6>
    33fc:	36 fe       	sbrs	r3, 6
    33fe:	06 c0       	rjmp	.+12     	; 0x340c <vfprintf+0xc4>
    3400:	8a e0       	ldi	r24, 0x0A	; 10
    3402:	98 9e       	mul	r9, r24
    3404:	20 0d       	add	r18, r0
    3406:	11 24       	eor	r1, r1
    3408:	92 2e       	mov	r9, r18
    340a:	11 c0       	rjmp	.+34     	; 0x342e <vfprintf+0xe6>
    340c:	ea e0       	ldi	r30, 0x0A	; 10
    340e:	2e 9e       	mul	r2, r30
    3410:	20 0d       	add	r18, r0
    3412:	11 24       	eor	r1, r1
    3414:	22 2e       	mov	r2, r18
    3416:	f3 2d       	mov	r31, r3
    3418:	f0 62       	ori	r31, 0x20	; 32
    341a:	3f 2e       	mov	r3, r31
    341c:	08 c0       	rjmp	.+16     	; 0x342e <vfprintf+0xe6>
    341e:	8c 36       	cpi	r24, 0x6C	; 108
    3420:	21 f4       	brne	.+8      	; 0x342a <vfprintf+0xe2>
    3422:	83 2d       	mov	r24, r3
    3424:	80 68       	ori	r24, 0x80	; 128
    3426:	38 2e       	mov	r3, r24
    3428:	02 c0       	rjmp	.+4      	; 0x342e <vfprintf+0xe6>
    342a:	88 36       	cpi	r24, 0x68	; 104
    342c:	41 f4       	brne	.+16     	; 0x343e <vfprintf+0xf6>
    342e:	f7 01       	movw	r30, r14
    3430:	93 fd       	sbrc	r25, 3
    3432:	85 91       	lpm	r24, Z+
    3434:	93 ff       	sbrs	r25, 3
    3436:	81 91       	ld	r24, Z+
    3438:	7f 01       	movw	r14, r30
    343a:	81 11       	cpse	r24, r1
    343c:	b3 cf       	rjmp	.-154    	; 0x33a4 <vfprintf+0x5c>
    343e:	98 2f       	mov	r25, r24
    3440:	9f 7d       	andi	r25, 0xDF	; 223
    3442:	95 54       	subi	r25, 0x45	; 69
    3444:	93 30       	cpi	r25, 0x03	; 3
    3446:	28 f4       	brcc	.+10     	; 0x3452 <vfprintf+0x10a>
    3448:	0c 5f       	subi	r16, 0xFC	; 252
    344a:	1f 4f       	sbci	r17, 0xFF	; 255
    344c:	9f e3       	ldi	r25, 0x3F	; 63
    344e:	99 83       	std	Y+1, r25	; 0x01
    3450:	0d c0       	rjmp	.+26     	; 0x346c <vfprintf+0x124>
    3452:	83 36       	cpi	r24, 0x63	; 99
    3454:	31 f0       	breq	.+12     	; 0x3462 <vfprintf+0x11a>
    3456:	83 37       	cpi	r24, 0x73	; 115
    3458:	71 f0       	breq	.+28     	; 0x3476 <vfprintf+0x12e>
    345a:	83 35       	cpi	r24, 0x53	; 83
    345c:	09 f0       	breq	.+2      	; 0x3460 <vfprintf+0x118>
    345e:	59 c0       	rjmp	.+178    	; 0x3512 <vfprintf+0x1ca>
    3460:	21 c0       	rjmp	.+66     	; 0x34a4 <vfprintf+0x15c>
    3462:	f8 01       	movw	r30, r16
    3464:	80 81       	ld	r24, Z
    3466:	89 83       	std	Y+1, r24	; 0x01
    3468:	0e 5f       	subi	r16, 0xFE	; 254
    346a:	1f 4f       	sbci	r17, 0xFF	; 255
    346c:	88 24       	eor	r8, r8
    346e:	83 94       	inc	r8
    3470:	91 2c       	mov	r9, r1
    3472:	53 01       	movw	r10, r6
    3474:	13 c0       	rjmp	.+38     	; 0x349c <vfprintf+0x154>
    3476:	28 01       	movw	r4, r16
    3478:	f2 e0       	ldi	r31, 0x02	; 2
    347a:	4f 0e       	add	r4, r31
    347c:	51 1c       	adc	r5, r1
    347e:	f8 01       	movw	r30, r16
    3480:	a0 80       	ld	r10, Z
    3482:	b1 80       	ldd	r11, Z+1	; 0x01
    3484:	36 fe       	sbrs	r3, 6
    3486:	03 c0       	rjmp	.+6      	; 0x348e <vfprintf+0x146>
    3488:	69 2d       	mov	r22, r9
    348a:	70 e0       	ldi	r23, 0x00	; 0
    348c:	02 c0       	rjmp	.+4      	; 0x3492 <vfprintf+0x14a>
    348e:	6f ef       	ldi	r22, 0xFF	; 255
    3490:	7f ef       	ldi	r23, 0xFF	; 255
    3492:	c5 01       	movw	r24, r10
    3494:	0e 94 90 1b 	call	0x3720	; 0x3720 <strnlen>
    3498:	4c 01       	movw	r8, r24
    349a:	82 01       	movw	r16, r4
    349c:	f3 2d       	mov	r31, r3
    349e:	ff 77       	andi	r31, 0x7F	; 127
    34a0:	3f 2e       	mov	r3, r31
    34a2:	16 c0       	rjmp	.+44     	; 0x34d0 <vfprintf+0x188>
    34a4:	28 01       	movw	r4, r16
    34a6:	22 e0       	ldi	r18, 0x02	; 2
    34a8:	42 0e       	add	r4, r18
    34aa:	51 1c       	adc	r5, r1
    34ac:	f8 01       	movw	r30, r16
    34ae:	a0 80       	ld	r10, Z
    34b0:	b1 80       	ldd	r11, Z+1	; 0x01
    34b2:	36 fe       	sbrs	r3, 6
    34b4:	03 c0       	rjmp	.+6      	; 0x34bc <vfprintf+0x174>
    34b6:	69 2d       	mov	r22, r9
    34b8:	70 e0       	ldi	r23, 0x00	; 0
    34ba:	02 c0       	rjmp	.+4      	; 0x34c0 <vfprintf+0x178>
    34bc:	6f ef       	ldi	r22, 0xFF	; 255
    34be:	7f ef       	ldi	r23, 0xFF	; 255
    34c0:	c5 01       	movw	r24, r10
    34c2:	0e 94 85 1b 	call	0x370a	; 0x370a <strnlen_P>
    34c6:	4c 01       	movw	r8, r24
    34c8:	f3 2d       	mov	r31, r3
    34ca:	f0 68       	ori	r31, 0x80	; 128
    34cc:	3f 2e       	mov	r3, r31
    34ce:	82 01       	movw	r16, r4
    34d0:	33 fc       	sbrc	r3, 3
    34d2:	1b c0       	rjmp	.+54     	; 0x350a <vfprintf+0x1c2>
    34d4:	82 2d       	mov	r24, r2
    34d6:	90 e0       	ldi	r25, 0x00	; 0
    34d8:	88 16       	cp	r8, r24
    34da:	99 06       	cpc	r9, r25
    34dc:	b0 f4       	brcc	.+44     	; 0x350a <vfprintf+0x1c2>
    34de:	b6 01       	movw	r22, r12
    34e0:	80 e2       	ldi	r24, 0x20	; 32
    34e2:	90 e0       	ldi	r25, 0x00	; 0
    34e4:	0e 94 ab 1b 	call	0x3756	; 0x3756 <fputc>
    34e8:	2a 94       	dec	r2
    34ea:	f4 cf       	rjmp	.-24     	; 0x34d4 <vfprintf+0x18c>
    34ec:	f5 01       	movw	r30, r10
    34ee:	37 fc       	sbrc	r3, 7
    34f0:	85 91       	lpm	r24, Z+
    34f2:	37 fe       	sbrs	r3, 7
    34f4:	81 91       	ld	r24, Z+
    34f6:	5f 01       	movw	r10, r30
    34f8:	b6 01       	movw	r22, r12
    34fa:	90 e0       	ldi	r25, 0x00	; 0
    34fc:	0e 94 ab 1b 	call	0x3756	; 0x3756 <fputc>
    3500:	21 10       	cpse	r2, r1
    3502:	2a 94       	dec	r2
    3504:	21 e0       	ldi	r18, 0x01	; 1
    3506:	82 1a       	sub	r8, r18
    3508:	91 08       	sbc	r9, r1
    350a:	81 14       	cp	r8, r1
    350c:	91 04       	cpc	r9, r1
    350e:	71 f7       	brne	.-36     	; 0x34ec <vfprintf+0x1a4>
    3510:	e8 c0       	rjmp	.+464    	; 0x36e2 <vfprintf+0x39a>
    3512:	84 36       	cpi	r24, 0x64	; 100
    3514:	11 f0       	breq	.+4      	; 0x351a <vfprintf+0x1d2>
    3516:	89 36       	cpi	r24, 0x69	; 105
    3518:	41 f5       	brne	.+80     	; 0x356a <vfprintf+0x222>
    351a:	f8 01       	movw	r30, r16
    351c:	37 fe       	sbrs	r3, 7
    351e:	07 c0       	rjmp	.+14     	; 0x352e <vfprintf+0x1e6>
    3520:	60 81       	ld	r22, Z
    3522:	71 81       	ldd	r23, Z+1	; 0x01
    3524:	82 81       	ldd	r24, Z+2	; 0x02
    3526:	93 81       	ldd	r25, Z+3	; 0x03
    3528:	0c 5f       	subi	r16, 0xFC	; 252
    352a:	1f 4f       	sbci	r17, 0xFF	; 255
    352c:	08 c0       	rjmp	.+16     	; 0x353e <vfprintf+0x1f6>
    352e:	60 81       	ld	r22, Z
    3530:	71 81       	ldd	r23, Z+1	; 0x01
    3532:	07 2e       	mov	r0, r23
    3534:	00 0c       	add	r0, r0
    3536:	88 0b       	sbc	r24, r24
    3538:	99 0b       	sbc	r25, r25
    353a:	0e 5f       	subi	r16, 0xFE	; 254
    353c:	1f 4f       	sbci	r17, 0xFF	; 255
    353e:	f3 2d       	mov	r31, r3
    3540:	ff 76       	andi	r31, 0x6F	; 111
    3542:	3f 2e       	mov	r3, r31
    3544:	97 ff       	sbrs	r25, 7
    3546:	09 c0       	rjmp	.+18     	; 0x355a <vfprintf+0x212>
    3548:	90 95       	com	r25
    354a:	80 95       	com	r24
    354c:	70 95       	com	r23
    354e:	61 95       	neg	r22
    3550:	7f 4f       	sbci	r23, 0xFF	; 255
    3552:	8f 4f       	sbci	r24, 0xFF	; 255
    3554:	9f 4f       	sbci	r25, 0xFF	; 255
    3556:	f0 68       	ori	r31, 0x80	; 128
    3558:	3f 2e       	mov	r3, r31
    355a:	2a e0       	ldi	r18, 0x0A	; 10
    355c:	30 e0       	ldi	r19, 0x00	; 0
    355e:	a3 01       	movw	r20, r6
    3560:	0e 94 e7 1b 	call	0x37ce	; 0x37ce <__ultoa_invert>
    3564:	88 2e       	mov	r8, r24
    3566:	86 18       	sub	r8, r6
    3568:	45 c0       	rjmp	.+138    	; 0x35f4 <vfprintf+0x2ac>
    356a:	85 37       	cpi	r24, 0x75	; 117
    356c:	31 f4       	brne	.+12     	; 0x357a <vfprintf+0x232>
    356e:	23 2d       	mov	r18, r3
    3570:	2f 7e       	andi	r18, 0xEF	; 239
    3572:	b2 2e       	mov	r11, r18
    3574:	2a e0       	ldi	r18, 0x0A	; 10
    3576:	30 e0       	ldi	r19, 0x00	; 0
    3578:	25 c0       	rjmp	.+74     	; 0x35c4 <vfprintf+0x27c>
    357a:	93 2d       	mov	r25, r3
    357c:	99 7f       	andi	r25, 0xF9	; 249
    357e:	b9 2e       	mov	r11, r25
    3580:	8f 36       	cpi	r24, 0x6F	; 111
    3582:	c1 f0       	breq	.+48     	; 0x35b4 <vfprintf+0x26c>
    3584:	18 f4       	brcc	.+6      	; 0x358c <vfprintf+0x244>
    3586:	88 35       	cpi	r24, 0x58	; 88
    3588:	79 f0       	breq	.+30     	; 0x35a8 <vfprintf+0x260>
    358a:	b5 c0       	rjmp	.+362    	; 0x36f6 <vfprintf+0x3ae>
    358c:	80 37       	cpi	r24, 0x70	; 112
    358e:	19 f0       	breq	.+6      	; 0x3596 <vfprintf+0x24e>
    3590:	88 37       	cpi	r24, 0x78	; 120
    3592:	21 f0       	breq	.+8      	; 0x359c <vfprintf+0x254>
    3594:	b0 c0       	rjmp	.+352    	; 0x36f6 <vfprintf+0x3ae>
    3596:	e9 2f       	mov	r30, r25
    3598:	e0 61       	ori	r30, 0x10	; 16
    359a:	be 2e       	mov	r11, r30
    359c:	b4 fe       	sbrs	r11, 4
    359e:	0d c0       	rjmp	.+26     	; 0x35ba <vfprintf+0x272>
    35a0:	fb 2d       	mov	r31, r11
    35a2:	f4 60       	ori	r31, 0x04	; 4
    35a4:	bf 2e       	mov	r11, r31
    35a6:	09 c0       	rjmp	.+18     	; 0x35ba <vfprintf+0x272>
    35a8:	34 fe       	sbrs	r3, 4
    35aa:	0a c0       	rjmp	.+20     	; 0x35c0 <vfprintf+0x278>
    35ac:	29 2f       	mov	r18, r25
    35ae:	26 60       	ori	r18, 0x06	; 6
    35b0:	b2 2e       	mov	r11, r18
    35b2:	06 c0       	rjmp	.+12     	; 0x35c0 <vfprintf+0x278>
    35b4:	28 e0       	ldi	r18, 0x08	; 8
    35b6:	30 e0       	ldi	r19, 0x00	; 0
    35b8:	05 c0       	rjmp	.+10     	; 0x35c4 <vfprintf+0x27c>
    35ba:	20 e1       	ldi	r18, 0x10	; 16
    35bc:	30 e0       	ldi	r19, 0x00	; 0
    35be:	02 c0       	rjmp	.+4      	; 0x35c4 <vfprintf+0x27c>
    35c0:	20 e1       	ldi	r18, 0x10	; 16
    35c2:	32 e0       	ldi	r19, 0x02	; 2
    35c4:	f8 01       	movw	r30, r16
    35c6:	b7 fe       	sbrs	r11, 7
    35c8:	07 c0       	rjmp	.+14     	; 0x35d8 <vfprintf+0x290>
    35ca:	60 81       	ld	r22, Z
    35cc:	71 81       	ldd	r23, Z+1	; 0x01
    35ce:	82 81       	ldd	r24, Z+2	; 0x02
    35d0:	93 81       	ldd	r25, Z+3	; 0x03
    35d2:	0c 5f       	subi	r16, 0xFC	; 252
    35d4:	1f 4f       	sbci	r17, 0xFF	; 255
    35d6:	06 c0       	rjmp	.+12     	; 0x35e4 <vfprintf+0x29c>
    35d8:	60 81       	ld	r22, Z
    35da:	71 81       	ldd	r23, Z+1	; 0x01
    35dc:	80 e0       	ldi	r24, 0x00	; 0
    35de:	90 e0       	ldi	r25, 0x00	; 0
    35e0:	0e 5f       	subi	r16, 0xFE	; 254
    35e2:	1f 4f       	sbci	r17, 0xFF	; 255
    35e4:	a3 01       	movw	r20, r6
    35e6:	0e 94 e7 1b 	call	0x37ce	; 0x37ce <__ultoa_invert>
    35ea:	88 2e       	mov	r8, r24
    35ec:	86 18       	sub	r8, r6
    35ee:	fb 2d       	mov	r31, r11
    35f0:	ff 77       	andi	r31, 0x7F	; 127
    35f2:	3f 2e       	mov	r3, r31
    35f4:	36 fe       	sbrs	r3, 6
    35f6:	0d c0       	rjmp	.+26     	; 0x3612 <vfprintf+0x2ca>
    35f8:	23 2d       	mov	r18, r3
    35fa:	2e 7f       	andi	r18, 0xFE	; 254
    35fc:	a2 2e       	mov	r10, r18
    35fe:	89 14       	cp	r8, r9
    3600:	58 f4       	brcc	.+22     	; 0x3618 <vfprintf+0x2d0>
    3602:	34 fe       	sbrs	r3, 4
    3604:	0b c0       	rjmp	.+22     	; 0x361c <vfprintf+0x2d4>
    3606:	32 fc       	sbrc	r3, 2
    3608:	09 c0       	rjmp	.+18     	; 0x361c <vfprintf+0x2d4>
    360a:	83 2d       	mov	r24, r3
    360c:	8e 7e       	andi	r24, 0xEE	; 238
    360e:	a8 2e       	mov	r10, r24
    3610:	05 c0       	rjmp	.+10     	; 0x361c <vfprintf+0x2d4>
    3612:	b8 2c       	mov	r11, r8
    3614:	a3 2c       	mov	r10, r3
    3616:	03 c0       	rjmp	.+6      	; 0x361e <vfprintf+0x2d6>
    3618:	b8 2c       	mov	r11, r8
    361a:	01 c0       	rjmp	.+2      	; 0x361e <vfprintf+0x2d6>
    361c:	b9 2c       	mov	r11, r9
    361e:	a4 fe       	sbrs	r10, 4
    3620:	0f c0       	rjmp	.+30     	; 0x3640 <vfprintf+0x2f8>
    3622:	fe 01       	movw	r30, r28
    3624:	e8 0d       	add	r30, r8
    3626:	f1 1d       	adc	r31, r1
    3628:	80 81       	ld	r24, Z
    362a:	80 33       	cpi	r24, 0x30	; 48
    362c:	21 f4       	brne	.+8      	; 0x3636 <vfprintf+0x2ee>
    362e:	9a 2d       	mov	r25, r10
    3630:	99 7e       	andi	r25, 0xE9	; 233
    3632:	a9 2e       	mov	r10, r25
    3634:	09 c0       	rjmp	.+18     	; 0x3648 <vfprintf+0x300>
    3636:	a2 fe       	sbrs	r10, 2
    3638:	06 c0       	rjmp	.+12     	; 0x3646 <vfprintf+0x2fe>
    363a:	b3 94       	inc	r11
    363c:	b3 94       	inc	r11
    363e:	04 c0       	rjmp	.+8      	; 0x3648 <vfprintf+0x300>
    3640:	8a 2d       	mov	r24, r10
    3642:	86 78       	andi	r24, 0x86	; 134
    3644:	09 f0       	breq	.+2      	; 0x3648 <vfprintf+0x300>
    3646:	b3 94       	inc	r11
    3648:	a3 fc       	sbrc	r10, 3
    364a:	11 c0       	rjmp	.+34     	; 0x366e <vfprintf+0x326>
    364c:	a0 fe       	sbrs	r10, 0
    364e:	06 c0       	rjmp	.+12     	; 0x365c <vfprintf+0x314>
    3650:	b2 14       	cp	r11, r2
    3652:	88 f4       	brcc	.+34     	; 0x3676 <vfprintf+0x32e>
    3654:	28 0c       	add	r2, r8
    3656:	92 2c       	mov	r9, r2
    3658:	9b 18       	sub	r9, r11
    365a:	0e c0       	rjmp	.+28     	; 0x3678 <vfprintf+0x330>
    365c:	b2 14       	cp	r11, r2
    365e:	60 f4       	brcc	.+24     	; 0x3678 <vfprintf+0x330>
    3660:	b6 01       	movw	r22, r12
    3662:	80 e2       	ldi	r24, 0x20	; 32
    3664:	90 e0       	ldi	r25, 0x00	; 0
    3666:	0e 94 ab 1b 	call	0x3756	; 0x3756 <fputc>
    366a:	b3 94       	inc	r11
    366c:	f7 cf       	rjmp	.-18     	; 0x365c <vfprintf+0x314>
    366e:	b2 14       	cp	r11, r2
    3670:	18 f4       	brcc	.+6      	; 0x3678 <vfprintf+0x330>
    3672:	2b 18       	sub	r2, r11
    3674:	02 c0       	rjmp	.+4      	; 0x367a <vfprintf+0x332>
    3676:	98 2c       	mov	r9, r8
    3678:	21 2c       	mov	r2, r1
    367a:	a4 fe       	sbrs	r10, 4
    367c:	10 c0       	rjmp	.+32     	; 0x369e <vfprintf+0x356>
    367e:	b6 01       	movw	r22, r12
    3680:	80 e3       	ldi	r24, 0x30	; 48
    3682:	90 e0       	ldi	r25, 0x00	; 0
    3684:	0e 94 ab 1b 	call	0x3756	; 0x3756 <fputc>
    3688:	a2 fe       	sbrs	r10, 2
    368a:	17 c0       	rjmp	.+46     	; 0x36ba <vfprintf+0x372>
    368c:	a1 fc       	sbrc	r10, 1
    368e:	03 c0       	rjmp	.+6      	; 0x3696 <vfprintf+0x34e>
    3690:	88 e7       	ldi	r24, 0x78	; 120
    3692:	90 e0       	ldi	r25, 0x00	; 0
    3694:	02 c0       	rjmp	.+4      	; 0x369a <vfprintf+0x352>
    3696:	88 e5       	ldi	r24, 0x58	; 88
    3698:	90 e0       	ldi	r25, 0x00	; 0
    369a:	b6 01       	movw	r22, r12
    369c:	0c c0       	rjmp	.+24     	; 0x36b6 <vfprintf+0x36e>
    369e:	8a 2d       	mov	r24, r10
    36a0:	86 78       	andi	r24, 0x86	; 134
    36a2:	59 f0       	breq	.+22     	; 0x36ba <vfprintf+0x372>
    36a4:	a1 fe       	sbrs	r10, 1
    36a6:	02 c0       	rjmp	.+4      	; 0x36ac <vfprintf+0x364>
    36a8:	8b e2       	ldi	r24, 0x2B	; 43
    36aa:	01 c0       	rjmp	.+2      	; 0x36ae <vfprintf+0x366>
    36ac:	80 e2       	ldi	r24, 0x20	; 32
    36ae:	a7 fc       	sbrc	r10, 7
    36b0:	8d e2       	ldi	r24, 0x2D	; 45
    36b2:	b6 01       	movw	r22, r12
    36b4:	90 e0       	ldi	r25, 0x00	; 0
    36b6:	0e 94 ab 1b 	call	0x3756	; 0x3756 <fputc>
    36ba:	89 14       	cp	r8, r9
    36bc:	38 f4       	brcc	.+14     	; 0x36cc <vfprintf+0x384>
    36be:	b6 01       	movw	r22, r12
    36c0:	80 e3       	ldi	r24, 0x30	; 48
    36c2:	90 e0       	ldi	r25, 0x00	; 0
    36c4:	0e 94 ab 1b 	call	0x3756	; 0x3756 <fputc>
    36c8:	9a 94       	dec	r9
    36ca:	f7 cf       	rjmp	.-18     	; 0x36ba <vfprintf+0x372>
    36cc:	8a 94       	dec	r8
    36ce:	f3 01       	movw	r30, r6
    36d0:	e8 0d       	add	r30, r8
    36d2:	f1 1d       	adc	r31, r1
    36d4:	80 81       	ld	r24, Z
    36d6:	b6 01       	movw	r22, r12
    36d8:	90 e0       	ldi	r25, 0x00	; 0
    36da:	0e 94 ab 1b 	call	0x3756	; 0x3756 <fputc>
    36de:	81 10       	cpse	r8, r1
    36e0:	f5 cf       	rjmp	.-22     	; 0x36cc <vfprintf+0x384>
    36e2:	22 20       	and	r2, r2
    36e4:	09 f4       	brne	.+2      	; 0x36e8 <vfprintf+0x3a0>
    36e6:	42 ce       	rjmp	.-892    	; 0x336c <vfprintf+0x24>
    36e8:	b6 01       	movw	r22, r12
    36ea:	80 e2       	ldi	r24, 0x20	; 32
    36ec:	90 e0       	ldi	r25, 0x00	; 0
    36ee:	0e 94 ab 1b 	call	0x3756	; 0x3756 <fputc>
    36f2:	2a 94       	dec	r2
    36f4:	f6 cf       	rjmp	.-20     	; 0x36e2 <vfprintf+0x39a>
    36f6:	f6 01       	movw	r30, r12
    36f8:	86 81       	ldd	r24, Z+6	; 0x06
    36fa:	97 81       	ldd	r25, Z+7	; 0x07
    36fc:	02 c0       	rjmp	.+4      	; 0x3702 <vfprintf+0x3ba>
    36fe:	8f ef       	ldi	r24, 0xFF	; 255
    3700:	9f ef       	ldi	r25, 0xFF	; 255
    3702:	2b 96       	adiw	r28, 0x0b	; 11
    3704:	e2 e1       	ldi	r30, 0x12	; 18
    3706:	0c 94 bf 1c 	jmp	0x397e	; 0x397e <__epilogue_restores__>

0000370a <strnlen_P>:
    370a:	fc 01       	movw	r30, r24
    370c:	05 90       	lpm	r0, Z+
    370e:	61 50       	subi	r22, 0x01	; 1
    3710:	70 40       	sbci	r23, 0x00	; 0
    3712:	01 10       	cpse	r0, r1
    3714:	d8 f7       	brcc	.-10     	; 0x370c <strnlen_P+0x2>
    3716:	80 95       	com	r24
    3718:	90 95       	com	r25
    371a:	8e 0f       	add	r24, r30
    371c:	9f 1f       	adc	r25, r31
    371e:	08 95       	ret

00003720 <strnlen>:
    3720:	fc 01       	movw	r30, r24
    3722:	61 50       	subi	r22, 0x01	; 1
    3724:	70 40       	sbci	r23, 0x00	; 0
    3726:	01 90       	ld	r0, Z+
    3728:	01 10       	cpse	r0, r1
    372a:	d8 f7       	brcc	.-10     	; 0x3722 <strnlen+0x2>
    372c:	80 95       	com	r24
    372e:	90 95       	com	r25
    3730:	8e 0f       	add	r24, r30
    3732:	9f 1f       	adc	r25, r31
    3734:	08 95       	ret

00003736 <strrev>:
    3736:	dc 01       	movw	r26, r24
    3738:	fc 01       	movw	r30, r24
    373a:	67 2f       	mov	r22, r23
    373c:	71 91       	ld	r23, Z+
    373e:	77 23       	and	r23, r23
    3740:	e1 f7       	brne	.-8      	; 0x373a <strrev+0x4>
    3742:	32 97       	sbiw	r30, 0x02	; 2
    3744:	04 c0       	rjmp	.+8      	; 0x374e <strrev+0x18>
    3746:	7c 91       	ld	r23, X
    3748:	6d 93       	st	X+, r22
    374a:	70 83       	st	Z, r23
    374c:	62 91       	ld	r22, -Z
    374e:	ae 17       	cp	r26, r30
    3750:	bf 07       	cpc	r27, r31
    3752:	c8 f3       	brcs	.-14     	; 0x3746 <strrev+0x10>
    3754:	08 95       	ret

00003756 <fputc>:
    3756:	0f 93       	push	r16
    3758:	1f 93       	push	r17
    375a:	cf 93       	push	r28
    375c:	df 93       	push	r29
    375e:	fb 01       	movw	r30, r22
    3760:	23 81       	ldd	r18, Z+3	; 0x03
    3762:	21 fd       	sbrc	r18, 1
    3764:	03 c0       	rjmp	.+6      	; 0x376c <fputc+0x16>
    3766:	8f ef       	ldi	r24, 0xFF	; 255
    3768:	9f ef       	ldi	r25, 0xFF	; 255
    376a:	2c c0       	rjmp	.+88     	; 0x37c4 <fputc+0x6e>
    376c:	22 ff       	sbrs	r18, 2
    376e:	16 c0       	rjmp	.+44     	; 0x379c <fputc+0x46>
    3770:	46 81       	ldd	r20, Z+6	; 0x06
    3772:	57 81       	ldd	r21, Z+7	; 0x07
    3774:	24 81       	ldd	r18, Z+4	; 0x04
    3776:	35 81       	ldd	r19, Z+5	; 0x05
    3778:	42 17       	cp	r20, r18
    377a:	53 07       	cpc	r21, r19
    377c:	44 f4       	brge	.+16     	; 0x378e <fputc+0x38>
    377e:	a0 81       	ld	r26, Z
    3780:	b1 81       	ldd	r27, Z+1	; 0x01
    3782:	9d 01       	movw	r18, r26
    3784:	2f 5f       	subi	r18, 0xFF	; 255
    3786:	3f 4f       	sbci	r19, 0xFF	; 255
    3788:	31 83       	std	Z+1, r19	; 0x01
    378a:	20 83       	st	Z, r18
    378c:	8c 93       	st	X, r24
    378e:	26 81       	ldd	r18, Z+6	; 0x06
    3790:	37 81       	ldd	r19, Z+7	; 0x07
    3792:	2f 5f       	subi	r18, 0xFF	; 255
    3794:	3f 4f       	sbci	r19, 0xFF	; 255
    3796:	37 83       	std	Z+7, r19	; 0x07
    3798:	26 83       	std	Z+6, r18	; 0x06
    379a:	14 c0       	rjmp	.+40     	; 0x37c4 <fputc+0x6e>
    379c:	8b 01       	movw	r16, r22
    379e:	ec 01       	movw	r28, r24
    37a0:	fb 01       	movw	r30, r22
    37a2:	00 84       	ldd	r0, Z+8	; 0x08
    37a4:	f1 85       	ldd	r31, Z+9	; 0x09
    37a6:	e0 2d       	mov	r30, r0
    37a8:	09 95       	icall
    37aa:	89 2b       	or	r24, r25
    37ac:	e1 f6       	brne	.-72     	; 0x3766 <fputc+0x10>
    37ae:	d8 01       	movw	r26, r16
    37b0:	16 96       	adiw	r26, 0x06	; 6
    37b2:	8d 91       	ld	r24, X+
    37b4:	9c 91       	ld	r25, X
    37b6:	17 97       	sbiw	r26, 0x07	; 7
    37b8:	01 96       	adiw	r24, 0x01	; 1
    37ba:	17 96       	adiw	r26, 0x07	; 7
    37bc:	9c 93       	st	X, r25
    37be:	8e 93       	st	-X, r24
    37c0:	16 97       	sbiw	r26, 0x06	; 6
    37c2:	ce 01       	movw	r24, r28
    37c4:	df 91       	pop	r29
    37c6:	cf 91       	pop	r28
    37c8:	1f 91       	pop	r17
    37ca:	0f 91       	pop	r16
    37cc:	08 95       	ret

000037ce <__ultoa_invert>:
    37ce:	fa 01       	movw	r30, r20
    37d0:	aa 27       	eor	r26, r26
    37d2:	28 30       	cpi	r18, 0x08	; 8
    37d4:	51 f1       	breq	.+84     	; 0x382a <__ultoa_invert+0x5c>
    37d6:	20 31       	cpi	r18, 0x10	; 16
    37d8:	81 f1       	breq	.+96     	; 0x383a <__ultoa_invert+0x6c>
    37da:	e8 94       	clt
    37dc:	6f 93       	push	r22
    37de:	6e 7f       	andi	r22, 0xFE	; 254
    37e0:	6e 5f       	subi	r22, 0xFE	; 254
    37e2:	7f 4f       	sbci	r23, 0xFF	; 255
    37e4:	8f 4f       	sbci	r24, 0xFF	; 255
    37e6:	9f 4f       	sbci	r25, 0xFF	; 255
    37e8:	af 4f       	sbci	r26, 0xFF	; 255
    37ea:	b1 e0       	ldi	r27, 0x01	; 1
    37ec:	3e d0       	rcall	.+124    	; 0x386a <__ultoa_invert+0x9c>
    37ee:	b4 e0       	ldi	r27, 0x04	; 4
    37f0:	3c d0       	rcall	.+120    	; 0x386a <__ultoa_invert+0x9c>
    37f2:	67 0f       	add	r22, r23
    37f4:	78 1f       	adc	r23, r24
    37f6:	89 1f       	adc	r24, r25
    37f8:	9a 1f       	adc	r25, r26
    37fa:	a1 1d       	adc	r26, r1
    37fc:	68 0f       	add	r22, r24
    37fe:	79 1f       	adc	r23, r25
    3800:	8a 1f       	adc	r24, r26
    3802:	91 1d       	adc	r25, r1
    3804:	a1 1d       	adc	r26, r1
    3806:	6a 0f       	add	r22, r26
    3808:	71 1d       	adc	r23, r1
    380a:	81 1d       	adc	r24, r1
    380c:	91 1d       	adc	r25, r1
    380e:	a1 1d       	adc	r26, r1
    3810:	20 d0       	rcall	.+64     	; 0x3852 <__ultoa_invert+0x84>
    3812:	09 f4       	brne	.+2      	; 0x3816 <__ultoa_invert+0x48>
    3814:	68 94       	set
    3816:	3f 91       	pop	r19
    3818:	2a e0       	ldi	r18, 0x0A	; 10
    381a:	26 9f       	mul	r18, r22
    381c:	11 24       	eor	r1, r1
    381e:	30 19       	sub	r19, r0
    3820:	30 5d       	subi	r19, 0xD0	; 208
    3822:	31 93       	st	Z+, r19
    3824:	de f6       	brtc	.-74     	; 0x37dc <__ultoa_invert+0xe>
    3826:	cf 01       	movw	r24, r30
    3828:	08 95       	ret
    382a:	46 2f       	mov	r20, r22
    382c:	47 70       	andi	r20, 0x07	; 7
    382e:	40 5d       	subi	r20, 0xD0	; 208
    3830:	41 93       	st	Z+, r20
    3832:	b3 e0       	ldi	r27, 0x03	; 3
    3834:	0f d0       	rcall	.+30     	; 0x3854 <__ultoa_invert+0x86>
    3836:	c9 f7       	brne	.-14     	; 0x382a <__ultoa_invert+0x5c>
    3838:	f6 cf       	rjmp	.-20     	; 0x3826 <__ultoa_invert+0x58>
    383a:	46 2f       	mov	r20, r22
    383c:	4f 70       	andi	r20, 0x0F	; 15
    383e:	40 5d       	subi	r20, 0xD0	; 208
    3840:	4a 33       	cpi	r20, 0x3A	; 58
    3842:	18 f0       	brcs	.+6      	; 0x384a <__ultoa_invert+0x7c>
    3844:	49 5d       	subi	r20, 0xD9	; 217
    3846:	31 fd       	sbrc	r19, 1
    3848:	40 52       	subi	r20, 0x20	; 32
    384a:	41 93       	st	Z+, r20
    384c:	02 d0       	rcall	.+4      	; 0x3852 <__ultoa_invert+0x84>
    384e:	a9 f7       	brne	.-22     	; 0x383a <__ultoa_invert+0x6c>
    3850:	ea cf       	rjmp	.-44     	; 0x3826 <__ultoa_invert+0x58>
    3852:	b4 e0       	ldi	r27, 0x04	; 4
    3854:	a6 95       	lsr	r26
    3856:	97 95       	ror	r25
    3858:	87 95       	ror	r24
    385a:	77 95       	ror	r23
    385c:	67 95       	ror	r22
    385e:	ba 95       	dec	r27
    3860:	c9 f7       	brne	.-14     	; 0x3854 <__ultoa_invert+0x86>
    3862:	00 97       	sbiw	r24, 0x00	; 0
    3864:	61 05       	cpc	r22, r1
    3866:	71 05       	cpc	r23, r1
    3868:	08 95       	ret
    386a:	9b 01       	movw	r18, r22
    386c:	ac 01       	movw	r20, r24
    386e:	0a 2e       	mov	r0, r26
    3870:	06 94       	lsr	r0
    3872:	57 95       	ror	r21
    3874:	47 95       	ror	r20
    3876:	37 95       	ror	r19
    3878:	27 95       	ror	r18
    387a:	ba 95       	dec	r27
    387c:	c9 f7       	brne	.-14     	; 0x3870 <__ultoa_invert+0xa2>
    387e:	62 0f       	add	r22, r18
    3880:	73 1f       	adc	r23, r19
    3882:	84 1f       	adc	r24, r20
    3884:	95 1f       	adc	r25, r21
    3886:	a0 1d       	adc	r26, r0
    3888:	08 95       	ret

0000388a <eeprom_read_block>:
    388a:	dc 01       	movw	r26, r24
    388c:	cb 01       	movw	r24, r22

0000388e <eeprom_read_blraw>:
    388e:	fc 01       	movw	r30, r24
    3890:	f9 99       	sbic	0x1f, 1	; 31
    3892:	fe cf       	rjmp	.-4      	; 0x3890 <eeprom_read_blraw+0x2>
    3894:	06 c0       	rjmp	.+12     	; 0x38a2 <eeprom_read_blraw+0x14>
    3896:	f2 bd       	out	0x22, r31	; 34
    3898:	e1 bd       	out	0x21, r30	; 33
    389a:	f8 9a       	sbi	0x1f, 0	; 31
    389c:	31 96       	adiw	r30, 0x01	; 1
    389e:	00 b4       	in	r0, 0x20	; 32
    38a0:	0d 92       	st	X+, r0
    38a2:	41 50       	subi	r20, 0x01	; 1
    38a4:	50 40       	sbci	r21, 0x00	; 0
    38a6:	b8 f7       	brcc	.-18     	; 0x3896 <eeprom_read_blraw+0x8>
    38a8:	08 95       	ret

000038aa <eeprom_read_byte>:
    38aa:	f9 99       	sbic	0x1f, 1	; 31
    38ac:	fe cf       	rjmp	.-4      	; 0x38aa <eeprom_read_byte>
    38ae:	92 bd       	out	0x22, r25	; 34
    38b0:	81 bd       	out	0x21, r24	; 33
    38b2:	f8 9a       	sbi	0x1f, 0	; 31
    38b4:	99 27       	eor	r25, r25
    38b6:	80 b5       	in	r24, 0x20	; 32
    38b8:	08 95       	ret

000038ba <eeprom_read_word>:
    38ba:	a8 e1       	ldi	r26, 0x18	; 24
    38bc:	b0 e0       	ldi	r27, 0x00	; 0
    38be:	42 e0       	ldi	r20, 0x02	; 2
    38c0:	50 e0       	ldi	r21, 0x00	; 0
    38c2:	0c 94 47 1c 	jmp	0x388e	; 0x388e <eeprom_read_blraw>

000038c6 <eeprom_update_block>:
    38c6:	dc 01       	movw	r26, r24
    38c8:	a4 0f       	add	r26, r20
    38ca:	b5 1f       	adc	r27, r21
    38cc:	41 50       	subi	r20, 0x01	; 1
    38ce:	50 40       	sbci	r21, 0x00	; 0
    38d0:	48 f0       	brcs	.+18     	; 0x38e4 <eeprom_update_block+0x1e>
    38d2:	cb 01       	movw	r24, r22
    38d4:	84 0f       	add	r24, r20
    38d6:	95 1f       	adc	r25, r21
    38d8:	2e 91       	ld	r18, -X
    38da:	0e 94 74 1c 	call	0x38e8	; 0x38e8 <eeprom_update_r18>
    38de:	41 50       	subi	r20, 0x01	; 1
    38e0:	50 40       	sbci	r21, 0x00	; 0
    38e2:	d0 f7       	brcc	.-12     	; 0x38d8 <eeprom_update_block+0x12>
    38e4:	08 95       	ret

000038e6 <eeprom_update_byte>:
    38e6:	26 2f       	mov	r18, r22

000038e8 <eeprom_update_r18>:
    38e8:	f9 99       	sbic	0x1f, 1	; 31
    38ea:	fe cf       	rjmp	.-4      	; 0x38e8 <eeprom_update_r18>
    38ec:	92 bd       	out	0x22, r25	; 34
    38ee:	81 bd       	out	0x21, r24	; 33
    38f0:	f8 9a       	sbi	0x1f, 0	; 31
    38f2:	01 97       	sbiw	r24, 0x01	; 1
    38f4:	00 b4       	in	r0, 0x20	; 32
    38f6:	02 16       	cp	r0, r18
    38f8:	39 f0       	breq	.+14     	; 0x3908 <eeprom_update_r18+0x20>
    38fa:	1f ba       	out	0x1f, r1	; 31
    38fc:	20 bd       	out	0x20, r18	; 32
    38fe:	0f b6       	in	r0, 0x3f	; 63
    3900:	f8 94       	cli
    3902:	fa 9a       	sbi	0x1f, 2	; 31
    3904:	f9 9a       	sbi	0x1f, 1	; 31
    3906:	0f be       	out	0x3f, r0	; 63
    3908:	08 95       	ret

0000390a <eeprom_update_word>:
    390a:	01 96       	adiw	r24, 0x01	; 1
    390c:	27 2f       	mov	r18, r23
    390e:	0e 94 74 1c 	call	0x38e8	; 0x38e8 <eeprom_update_r18>
    3912:	0c 94 73 1c 	jmp	0x38e6	; 0x38e6 <eeprom_update_byte>

00003916 <eeprom_write_block>:
    3916:	dc 01       	movw	r26, r24
    3918:	cb 01       	movw	r24, r22
    391a:	03 c0       	rjmp	.+6      	; 0x3922 <eeprom_write_block+0xc>
    391c:	2d 91       	ld	r18, X+
    391e:	0e 94 96 1c 	call	0x392c	; 0x392c <eeprom_write_r18>
    3922:	41 50       	subi	r20, 0x01	; 1
    3924:	50 40       	sbci	r21, 0x00	; 0
    3926:	d0 f7       	brcc	.-12     	; 0x391c <eeprom_write_block+0x6>
    3928:	08 95       	ret

0000392a <eeprom_write_byte>:
    392a:	26 2f       	mov	r18, r22

0000392c <eeprom_write_r18>:
    392c:	f9 99       	sbic	0x1f, 1	; 31
    392e:	fe cf       	rjmp	.-4      	; 0x392c <eeprom_write_r18>
    3930:	1f ba       	out	0x1f, r1	; 31
    3932:	92 bd       	out	0x22, r25	; 34
    3934:	81 bd       	out	0x21, r24	; 33
    3936:	20 bd       	out	0x20, r18	; 32
    3938:	0f b6       	in	r0, 0x3f	; 63
    393a:	f8 94       	cli
    393c:	fa 9a       	sbi	0x1f, 2	; 31
    393e:	f9 9a       	sbi	0x1f, 1	; 31
    3940:	0f be       	out	0x3f, r0	; 63
    3942:	01 96       	adiw	r24, 0x01	; 1
    3944:	08 95       	ret

00003946 <__prologue_saves__>:
    3946:	2f 92       	push	r2
    3948:	3f 92       	push	r3
    394a:	4f 92       	push	r4
    394c:	5f 92       	push	r5
    394e:	6f 92       	push	r6
    3950:	7f 92       	push	r7
    3952:	8f 92       	push	r8
    3954:	9f 92       	push	r9
    3956:	af 92       	push	r10
    3958:	bf 92       	push	r11
    395a:	cf 92       	push	r12
    395c:	df 92       	push	r13
    395e:	ef 92       	push	r14
    3960:	ff 92       	push	r15
    3962:	0f 93       	push	r16
    3964:	1f 93       	push	r17
    3966:	cf 93       	push	r28
    3968:	df 93       	push	r29
    396a:	cd b7       	in	r28, 0x3d	; 61
    396c:	de b7       	in	r29, 0x3e	; 62
    396e:	ca 1b       	sub	r28, r26
    3970:	db 0b       	sbc	r29, r27
    3972:	0f b6       	in	r0, 0x3f	; 63
    3974:	f8 94       	cli
    3976:	de bf       	out	0x3e, r29	; 62
    3978:	0f be       	out	0x3f, r0	; 63
    397a:	cd bf       	out	0x3d, r28	; 61
    397c:	09 94       	ijmp

0000397e <__epilogue_restores__>:
    397e:	2a 88       	ldd	r2, Y+18	; 0x12
    3980:	39 88       	ldd	r3, Y+17	; 0x11
    3982:	48 88       	ldd	r4, Y+16	; 0x10
    3984:	5f 84       	ldd	r5, Y+15	; 0x0f
    3986:	6e 84       	ldd	r6, Y+14	; 0x0e
    3988:	7d 84       	ldd	r7, Y+13	; 0x0d
    398a:	8c 84       	ldd	r8, Y+12	; 0x0c
    398c:	9b 84       	ldd	r9, Y+11	; 0x0b
    398e:	aa 84       	ldd	r10, Y+10	; 0x0a
    3990:	b9 84       	ldd	r11, Y+9	; 0x09
    3992:	c8 84       	ldd	r12, Y+8	; 0x08
    3994:	df 80       	ldd	r13, Y+7	; 0x07
    3996:	ee 80       	ldd	r14, Y+6	; 0x06
    3998:	fd 80       	ldd	r15, Y+5	; 0x05
    399a:	0c 81       	ldd	r16, Y+4	; 0x04
    399c:	1b 81       	ldd	r17, Y+3	; 0x03
    399e:	aa 81       	ldd	r26, Y+2	; 0x02
    39a0:	b9 81       	ldd	r27, Y+1	; 0x01
    39a2:	ce 0f       	add	r28, r30
    39a4:	d1 1d       	adc	r29, r1
    39a6:	0f b6       	in	r0, 0x3f	; 63
    39a8:	f8 94       	cli
    39aa:	de bf       	out	0x3e, r29	; 62
    39ac:	0f be       	out	0x3f, r0	; 63
    39ae:	cd bf       	out	0x3d, r28	; 61
    39b0:	ed 01       	movw	r28, r26
    39b2:	08 95       	ret

000039b4 <_exit>:
    39b4:	f8 94       	cli

000039b6 <__stop_program>:
    39b6:	ff cf       	rjmp	.-2      	; 0x39b6 <__stop_program>
